ccollections
defaultdict
p0
(c__builtin__
list
p1
tp2
Rp3
(F-5.0
F5.0
tp4
g0
(g1
tp5
Rp6
S'a'
p7
(lp8
ccopy_reg
_reconstructor
p9
(cimugrabber.communication.Sample
Sample
p10
c__builtin__
object
p11
Ntp12
Rp13
(dp14
S'sample'
p15
I352
sS'label'
p16
g7
sbag9
(g10
g11
Ntp17
Rp18
(dp19
g15
I352
sg16
g7
sbag9
(g10
g11
Ntp20
Rp21
(dp22
g15
I352
sg16
g7
sbag9
(g10
g11
Ntp23
Rp24
(dp25
g15
I352
sg16
g7
sbag9
(g10
g11
Ntp26
Rp27
(dp28
g15
I352
sg16
g7
sbag9
(g10
g11
Ntp29
Rp30
(dp31
g15
I352
sg16
g7
sbag9
(g10
g11
Ntp32
Rp33
(dp34
g15
I352
sg16
g7
sbag9
(g10
g11
Ntp35
Rp36
(dp37
g15
I352
sg16
g7
sbag9
(g10
g11
Ntp38
Rp39
(dp40
g15
I352
sg16
g7
sbag9
(g10
g11
Ntp41
Rp42
(dp43
g15
I352
sg16
g7
sbag9
(g10
g11
Ntp44
Rp45
(dp46
g15
I352
sg16
g7
sbag9
(g10
g11
Ntp47
Rp48
(dp49
g15
I352
sg16
g7
sbasS'c'
p50
(lp51
g9
(g10
g11
Ntp52
Rp53
(dp54
g15
I536
sg16
g50
sbag9
(g10
g11
Ntp55
Rp56
(dp57
g15
I536
sg16
g50
sbag9
(g10
g11
Ntp58
Rp59
(dp60
g15
I547
sg16
g50
sbag9
(g10
g11
Ntp61
Rp62
(dp63
g15
I536
sg16
g50
sbag9
(g10
g11
Ntp64
Rp65
(dp66
g15
I536
sg16
g50
sbag9
(g10
g11
Ntp67
Rp68
(dp69
g15
I550
sg16
g50
sbag9
(g10
g11
Ntp70
Rp71
(dp72
g15
I536
sg16
g50
sbag9
(g10
g11
Ntp73
Rp74
(dp75
g15
I536
sg16
g50
sbag9
(g10
g11
Ntp76
Rp77
(dp78
g15
I543
sg16
g50
sbag9
(g10
g11
Ntp79
Rp80
(dp81
g15
I536
sg16
g50
sbag9
(g10
g11
Ntp82
Rp83
(dp84
g15
I542
sg16
g50
sbag9
(g10
g11
Ntp85
Rp86
(dp87
g15
I540
sg16
g50
sbasS'b'
p88
(lp89
g9
(g10
g11
Ntp90
Rp91
(dp92
g15
I448
sg16
g88
sbag9
(g10
g11
Ntp93
Rp94
(dp95
g15
I448
sg16
g88
sbag9
(g10
g11
Ntp96
Rp97
(dp98
g15
I444
sg16
g88
sbag9
(g10
g11
Ntp99
Rp100
(dp101
g15
I444
sg16
g88
sbag9
(g10
g11
Ntp102
Rp103
(dp104
g15
I448
sg16
g88
sbag9
(g10
g11
Ntp105
Rp106
(dp107
g15
I440
sg16
g88
sbag9
(g10
g11
Ntp108
Rp109
(dp110
g15
I448
sg16
g88
sbag9
(g10
g11
Ntp111
Rp112
(dp113
g15
I444
sg16
g88
sbag9
(g10
g11
Ntp114
Rp115
(dp116
g15
I440
sg16
g88
sbag9
(g10
g11
Ntp117
Rp118
(dp119
g15
I444
sg16
g88
sbag9
(g10
g11
Ntp120
Rp121
(dp122
g15
I444
sg16
g88
sbag9
(g10
g11
Ntp123
Rp124
(dp125
g15
I444
sg16
g88
sbasS't'
p126
(lp127
g9
(g10
g11
Ntp128
Rp129
(dp130
g15
I19320
sg16
g126
sbag9
(g10
g11
Ntp131
Rp132
(dp133
g15
I28117
sg16
g126
sbag9
(g10
g11
Ntp134
Rp135
(dp136
g15
I36913
sg16
g126
sbag9
(g10
g11
Ntp137
Rp138
(dp139
g15
I60181
sg16
g126
sbag9
(g10
g11
Ntp140
Rp141
(dp142
g15
I3441
sg16
g126
sbag9
(g10
g11
Ntp143
Rp144
(dp145
g15
I12238
sg16
g126
sbag9
(g10
g11
Ntp146
Rp147
(dp148
g15
I35503
sg16
g126
sbag9
(g10
g11
Ntp149
Rp150
(dp151
g15
I44300
sg16
g126
sbag9
(g10
g11
Ntp152
Rp153
(dp154
g15
I53096
sg16
g126
sbag9
(g10
g11
Ntp155
Rp156
(dp157
g15
I10828
sg16
g126
sbag9
(g10
g11
Ntp158
Rp159
(dp160
g15
I19624
sg16
g126
sbag9
(g10
g11
Ntp161
Rp162
(dp163
g15
I28421
sg16
g126
sbasS'y'
p164
(lp165
g9
(g10
g11
Ntp166
Rp167
(dp168
g15
I505
sg16
g164
sbag9
(g10
g11
Ntp169
Rp170
(dp171
g15
I505
sg16
g164
sbag9
(g10
g11
Ntp172
Rp173
(dp174
g15
I508
sg16
g164
sbag9
(g10
g11
Ntp175
Rp176
(dp177
g15
I504
sg16
g164
sbag9
(g10
g11
Ntp178
Rp179
(dp180
g15
I499
sg16
g164
sbag9
(g10
g11
Ntp181
Rp182
(dp183
g15
I499
sg16
g164
sbag9
(g10
g11
Ntp184
Rp185
(dp186
g15
I504
sg16
g164
sbag9
(g10
g11
Ntp187
Rp188
(dp189
g15
I504
sg16
g164
sbag9
(g10
g11
Ntp190
Rp191
(dp192
g15
I504
sg16
g164
sbag9
(g10
g11
Ntp193
Rp194
(dp195
g15
I508
sg16
g164
sbag9
(g10
g11
Ntp196
Rp197
(dp198
g15
I508
sg16
g164
sbag9
(g10
g11
Ntp199
Rp200
(dp201
g15
I504
sg16
g164
sbasS'x'
p202
(lp203
g9
(g10
g11
Ntp204
Rp205
(dp206
g15
I591
sg16
g202
sbag9
(g10
g11
Ntp207
Rp208
(dp209
g15
I595
sg16
g202
sbag9
(g10
g11
Ntp210
Rp211
(dp212
g15
I591
sg16
g202
sbag9
(g10
g11
Ntp213
Rp214
(dp215
g15
I600
sg16
g202
sbag9
(g10
g11
Ntp216
Rp217
(dp218
g15
I591
sg16
g202
sbag9
(g10
g11
Ntp219
Rp220
(dp221
g15
I593
sg16
g202
sbag9
(g10
g11
Ntp222
Rp223
(dp224
g15
I591
sg16
g202
sbag9
(g10
g11
Ntp225
Rp226
(dp227
g15
I593
sg16
g202
sbag9
(g10
g11
Ntp228
Rp229
(dp230
g15
I591
sg16
g202
sbag9
(g10
g11
Ntp231
Rp232
(dp233
g15
I593
sg16
g202
sbag9
(g10
g11
Ntp234
Rp235
(dp236
g15
I595
sg16
g202
sbag9
(g10
g11
Ntp237
Rp238
(dp239
g15
I591
sg16
g202
sbasS'z'
p240
(lp241
g9
(g10
g11
Ntp242
Rp243
(dp244
g15
I772
sg16
g240
sbag9
(g10
g11
Ntp245
Rp246
(dp247
g15
I774
sg16
g240
sbag9
(g10
g11
Ntp248
Rp249
(dp250
g15
I774
sg16
g240
sbag9
(g10
g11
Ntp251
Rp252
(dp253
g15
I771
sg16
g240
sbag9
(g10
g11
Ntp254
Rp255
(dp256
g15
I775
sg16
g240
sbag9
(g10
g11
Ntp257
Rp258
(dp259
g15
I771
sg16
g240
sbag9
(g10
g11
Ntp260
Rp261
(dp262
g15
I769
sg16
g240
sbag9
(g10
g11
Ntp263
Rp264
(dp265
g15
I771
sg16
g240
sbag9
(g10
g11
Ntp266
Rp267
(dp268
g15
I772
sg16
g240
sbag9
(g10
g11
Ntp269
Rp270
(dp271
g15
I774
sg16
g240
sbag9
(g10
g11
Ntp272
Rp273
(dp274
g15
I775
sg16
g240
sbag9
(g10
g11
Ntp275
Rp276
(dp277
g15
I774
sg16
g240
sbass(F-5.0
F10.0
tp278
g0
(g1
tp279
Rp280
g7
(lp281
g9
(g10
g11
Ntp282
Rp283
(dp284
g15
I352
sg16
g7
sbag9
(g10
g11
Ntp285
Rp286
(dp287
g15
I352
sg16
g7
sbag9
(g10
g11
Ntp288
Rp289
(dp290
g15
I352
sg16
g7
sbag9
(g10
g11
Ntp291
Rp292
(dp293
g15
I352
sg16
g7
sbag9
(g10
g11
Ntp294
Rp295
(dp296
g15
I352
sg16
g7
sbag9
(g10
g11
Ntp297
Rp298
(dp299
g15
I352
sg16
g7
sbag9
(g10
g11
Ntp300
Rp301
(dp302
g15
I352
sg16
g7
sbag9
(g10
g11
Ntp303
Rp304
(dp305
g15
I352
sg16
g7
sbag9
(g10
g11
Ntp306
Rp307
(dp308
g15
I352
sg16
g7
sbag9
(g10
g11
Ntp309
Rp310
(dp311
g15
I352
sg16
g7
sbag9
(g10
g11
Ntp312
Rp313
(dp314
g15
I352
sg16
g7
sbag9
(g10
g11
Ntp315
Rp316
(dp317
g15
I352
sg16
g7
sbasg50
(lp318
g9
(g10
g11
Ntp319
Rp320
(dp321
g15
I543
sg16
g50
sbag9
(g10
g11
Ntp322
Rp323
(dp324
g15
I536
sg16
g50
sbag9
(g10
g11
Ntp325
Rp326
(dp327
g15
I536
sg16
g50
sbag9
(g10
g11
Ntp328
Rp329
(dp330
g15
I542
sg16
g50
sbag9
(g10
g11
Ntp331
Rp332
(dp333
g15
I536
sg16
g50
sbag9
(g10
g11
Ntp334
Rp335
(dp336
g15
I536
sg16
g50
sbag9
(g10
g11
Ntp337
Rp338
(dp339
g15
I540
sg16
g50
sbag9
(g10
g11
Ntp340
Rp341
(dp342
g15
I536
sg16
g50
sbag9
(g10
g11
Ntp343
Rp344
(dp345
g15
I536
sg16
g50
sbag9
(g10
g11
Ntp346
Rp347
(dp348
g15
I536
sg16
g50
sbag9
(g10
g11
Ntp349
Rp350
(dp351
g15
I536
sg16
g50
sbag9
(g10
g11
Ntp352
Rp353
(dp354
g15
I536
sg16
g50
sbasg88
(lp355
g9
(g10
g11
Ntp356
Rp357
(dp358
g15
I440
sg16
g88
sbag9
(g10
g11
Ntp359
Rp360
(dp361
g15
I448
sg16
g88
sbag9
(g10
g11
Ntp362
Rp363
(dp364
g15
I448
sg16
g88
sbag9
(g10
g11
Ntp365
Rp366
(dp367
g15
I440
sg16
g88
sbag9
(g10
g11
Ntp368
Rp369
(dp370
g15
I448
sg16
g88
sbag9
(g10
g11
Ntp371
Rp372
(dp373
g15
I448
sg16
g88
sbag9
(g10
g11
Ntp374
Rp375
(dp376
g15
I441
sg16
g88
sbag9
(g10
g11
Ntp377
Rp378
(dp379
g15
I444
sg16
g88
sbag9
(g10
g11
Ntp380
Rp381
(dp382
g15
I448
sg16
g88
sbag9
(g10
g11
Ntp383
Rp384
(dp385
g15
I444
sg16
g88
sbag9
(g10
g11
Ntp386
Rp387
(dp388
g15
I448
sg16
g88
sbag9
(g10
g11
Ntp389
Rp390
(dp391
g15
I448
sg16
g88
sbasg126
(lp392
g9
(g10
g11
Ntp393
Rp394
(dp395
g15
I61239
sg16
g126
sbag9
(g10
g11
Ntp396
Rp397
(dp398
g15
I4500
sg16
g126
sbag9
(g10
g11
Ntp399
Rp400
(dp401
g15
I13296
sg16
g126
sbag9
(g10
g11
Ntp402
Rp403
(dp404
g15
I36564
sg16
g126
sbag9
(g10
g11
Ntp405
Rp406
(dp407
g15
I45360
sg16
g126
sbag9
(g10
g11
Ntp408
Rp409
(dp410
g15
I54157
sg16
g126
sbag9
(g10
g11
Ntp411
Rp412
(dp413
g15
I11886
sg16
g126
sbag9
(g10
g11
Ntp414
Rp415
(dp416
g15
I20683
sg16
g126
sbag9
(g10
g11
Ntp417
Rp418
(dp419
g15
I29479
sg16
g126
sbag9
(g10
g11
Ntp420
Rp421
(dp422
g15
I52747
sg16
g126
sbag9
(g10
g11
Ntp423
Rp424
(dp425
g15
I61543
sg16
g126
sbag9
(g10
g11
Ntp426
Rp427
(dp428
g15
I4804
sg16
g126
sbasg164
(lp429
g9
(g10
g11
Ntp430
Rp431
(dp432
g15
I504
sg16
g164
sbag9
(g10
g11
Ntp433
Rp434
(dp435
g15
I508
sg16
g164
sbag9
(g10
g11
Ntp436
Rp437
(dp438
g15
I508
sg16
g164
sbag9
(g10
g11
Ntp439
Rp440
(dp441
g15
I504
sg16
g164
sbag9
(g10
g11
Ntp442
Rp443
(dp444
g15
I504
sg16
g164
sbag9
(g10
g11
Ntp445
Rp446
(dp447
g15
I504
sg16
g164
sbag9
(g10
g11
Ntp448
Rp449
(dp450
g15
I508
sg16
g164
sbag9
(g10
g11
Ntp451
Rp452
(dp453
g15
I504
sg16
g164
sbag9
(g10
g11
Ntp454
Rp455
(dp456
g15
I508
sg16
g164
sbag9
(g10
g11
Ntp457
Rp458
(dp459
g15
I504
sg16
g164
sbag9
(g10
g11
Ntp460
Rp461
(dp462
g15
I504
sg16
g164
sbag9
(g10
g11
Ntp463
Rp464
(dp465
g15
I504
sg16
g164
sbasg202
(lp466
g9
(g10
g11
Ntp467
Rp468
(dp469
g15
I615
sg16
g202
sbag9
(g10
g11
Ntp470
Rp471
(dp472
g15
I615
sg16
g202
sbag9
(g10
g11
Ntp473
Rp474
(dp475
g15
I615
sg16
g202
sbag9
(g10
g11
Ntp476
Rp477
(dp478
g15
I614
sg16
g202
sbag9
(g10
g11
Ntp479
Rp480
(dp481
g15
I615
sg16
g202
sbag9
(g10
g11
Ntp482
Rp483
(dp484
g15
I617
sg16
g202
sbag9
(g10
g11
Ntp485
Rp486
(dp487
g15
I615
sg16
g202
sbag9
(g10
g11
Ntp488
Rp489
(dp490
g15
I614
sg16
g202
sbag9
(g10
g11
Ntp491
Rp492
(dp493
g15
I615
sg16
g202
sbag9
(g10
g11
Ntp494
Rp495
(dp496
g15
I615
sg16
g202
sbag9
(g10
g11
Ntp497
Rp498
(dp499
g15
I615
sg16
g202
sbag9
(g10
g11
Ntp500
Rp501
(dp502
g15
I615
sg16
g202
sbasg240
(lp503
g9
(g10
g11
Ntp504
Rp505
(dp506
g15
I775
sg16
g240
sbag9
(g10
g11
Ntp507
Rp508
(dp509
g15
I771
sg16
g240
sbag9
(g10
g11
Ntp510
Rp511
(dp512
g15
I771
sg16
g240
sbag9
(g10
g11
Ntp513
Rp514
(dp515
g15
I771
sg16
g240
sbag9
(g10
g11
Ntp516
Rp517
(dp518
g15
I774
sg16
g240
sbag9
(g10
g11
Ntp519
Rp520
(dp521
g15
I771
sg16
g240
sbag9
(g10
g11
Ntp522
Rp523
(dp524
g15
I771
sg16
g240
sbag9
(g10
g11
Ntp525
Rp526
(dp527
g15
I774
sg16
g240
sbag9
(g10
g11
Ntp528
Rp529
(dp530
g15
I774
sg16
g240
sbag9
(g10
g11
Ntp531
Rp532
(dp533
g15
I771
sg16
g240
sbag9
(g10
g11
Ntp534
Rp535
(dp536
g15
I771
sg16
g240
sbag9
(g10
g11
Ntp537
Rp538
(dp539
g15
I774
sg16
g240
sbass(F2.5
F0.0
tp540
g0
(g1
tp541
Rp542
g7
(lp543
g9
(g10
g11
Ntp544
Rp545
(dp546
g15
I368
sg16
g7
sbag9
(g10
g11
Ntp547
Rp548
(dp549
g15
I353
sg16
g7
sbag9
(g10
g11
Ntp550
Rp551
(dp552
g15
I344
sg16
g7
sbag9
(g10
g11
Ntp553
Rp554
(dp555
g15
I339
sg16
g7
sbag9
(g10
g11
Ntp556
Rp557
(dp558
g15
I355
sg16
g7
sbag9
(g10
g11
Ntp559
Rp560
(dp561
g15
I359
sg16
g7
sbag9
(g10
g11
Ntp562
Rp563
(dp564
g15
I353
sg16
g7
sbag9
(g10
g11
Ntp565
Rp566
(dp567
g15
I355
sg16
g7
sbag9
(g10
g11
Ntp568
Rp569
(dp570
g15
I353
sg16
g7
sbag9
(g10
g11
Ntp571
Rp572
(dp573
g15
I352
sg16
g7
sbag9
(g10
g11
Ntp574
Rp575
(dp576
g15
I352
sg16
g7
sbag9
(g10
g11
Ntp577
Rp578
(dp579
g15
I352
sg16
g7
sbasg50
(lp580
g9
(g10
g11
Ntp581
Rp582
(dp583
g15
I543
sg16
g50
sbag9
(g10
g11
Ntp584
Rp585
(dp586
g15
I536
sg16
g50
sbag9
(g10
g11
Ntp587
Rp588
(dp589
g15
I536
sg16
g50
sbag9
(g10
g11
Ntp590
Rp591
(dp592
g15
I547
sg16
g50
sbag9
(g10
g11
Ntp593
Rp594
(dp595
g15
I536
sg16
g50
sbag9
(g10
g11
Ntp596
Rp597
(dp598
g15
I536
sg16
g50
sbag9
(g10
g11
Ntp599
Rp600
(dp601
g15
I548
sg16
g50
sbag9
(g10
g11
Ntp602
Rp603
(dp604
g15
I536
sg16
g50
sbag9
(g10
g11
Ntp605
Rp606
(dp607
g15
I536
sg16
g50
sbag9
(g10
g11
Ntp608
Rp609
(dp610
g15
I551
sg16
g50
sbag9
(g10
g11
Ntp611
Rp612
(dp613
g15
I536
sg16
g50
sbag9
(g10
g11
Ntp614
Rp615
(dp616
g15
I536
sg16
g50
sbasg88
(lp617
g9
(g10
g11
Ntp618
Rp619
(dp620
g15
I408
sg16
g88
sbag9
(g10
g11
Ntp621
Rp622
(dp623
g15
I408
sg16
g88
sbag9
(g10
g11
Ntp624
Rp625
(dp626
g15
I432
sg16
g88
sbag9
(g10
g11
Ntp627
Rp628
(dp629
g15
I448
sg16
g88
sbag9
(g10
g11
Ntp630
Rp631
(dp632
g15
I440
sg16
g88
sbag9
(g10
g11
Ntp633
Rp634
(dp635
g15
I444
sg16
g88
sbag9
(g10
g11
Ntp636
Rp637
(dp638
g15
I444
sg16
g88
sbag9
(g10
g11
Ntp639
Rp640
(dp641
g15
I448
sg16
g88
sbag9
(g10
g11
Ntp642
Rp643
(dp644
g15
I448
sg16
g88
sbag9
(g10
g11
Ntp645
Rp646
(dp647
g15
I440
sg16
g88
sbag9
(g10
g11
Ntp648
Rp649
(dp650
g15
I448
sg16
g88
sbag9
(g10
g11
Ntp651
Rp652
(dp653
g15
I448
sg16
g88
sbasg126
(lp654
g9
(g10
g11
Ntp655
Rp656
(dp657
g15
I35722
sg16
g126
sbag9
(g10
g11
Ntp658
Rp659
(dp660
g15
I44519
sg16
g126
sbag9
(g10
g11
Ntp661
Rp662
(dp663
g15
I53315
sg16
g126
sbag9
(g10
g11
Ntp664
Rp665
(dp666
g15
I11047
sg16
g126
sbag9
(g10
g11
Ntp667
Rp668
(dp669
g15
I19843
sg16
g126
sbag9
(g10
g11
Ntp670
Rp671
(dp672
g15
I28640
sg16
g126
sbag9
(g10
g11
Ntp673
Rp674
(dp675
g15
I51905
sg16
g126
sbag9
(g10
g11
Ntp676
Rp677
(dp678
g15
I60702
sg16
g126
sbag9
(g10
g11
Ntp679
Rp680
(dp681
g15
I3962
sg16
g126
sbag9
(g10
g11
Ntp682
Rp683
(dp684
g15
I27230
sg16
g126
sbag9
(g10
g11
Ntp685
Rp686
(dp687
g15
I36026
sg16
g126
sbag9
(g10
g11
Ntp688
Rp689
(dp690
g15
I44823
sg16
g126
sbasg164
(lp691
g9
(g10
g11
Ntp692
Rp693
(dp694
g15
I487
sg16
g164
sbag9
(g10
g11
Ntp695
Rp696
(dp697
g15
I467
sg16
g164
sbag9
(g10
g11
Ntp698
Rp699
(dp700
g15
I467
sg16
g164
sbag9
(g10
g11
Ntp701
Rp702
(dp703
g15
I463
sg16
g164
sbag9
(g10
g11
Ntp704
Rp705
(dp706
g15
I481
sg16
g164
sbag9
(g10
g11
Ntp707
Rp708
(dp709
g15
I463
sg16
g164
sbag9
(g10
g11
Ntp710
Rp711
(dp712
g15
I480
sg16
g164
sbag9
(g10
g11
Ntp713
Rp714
(dp715
g15
I472
sg16
g164
sbag9
(g10
g11
Ntp716
Rp717
(dp718
g15
I465
sg16
g164
sbag9
(g10
g11
Ntp719
Rp720
(dp721
g15
I476
sg16
g164
sbag9
(g10
g11
Ntp722
Rp723
(dp724
g15
I476
sg16
g164
sbag9
(g10
g11
Ntp725
Rp726
(dp727
g15
I472
sg16
g164
sbasg202
(lp728
g9
(g10
g11
Ntp729
Rp730
(dp731
g15
I574
sg16
g202
sbag9
(g10
g11
Ntp732
Rp733
(dp734
g15
I600
sg16
g202
sbag9
(g10
g11
Ntp735
Rp736
(dp737
g15
I575
sg16
g202
sbag9
(g10
g11
Ntp738
Rp739
(dp740
g15
I588
sg16
g202
sbag9
(g10
g11
Ntp741
Rp742
(dp743
g15
I600
sg16
g202
sbag9
(g10
g11
Ntp744
Rp745
(dp746
g15
I600
sg16
g202
sbag9
(g10
g11
Ntp747
Rp748
(dp749
g15
I583
sg16
g202
sbag9
(g10
g11
Ntp750
Rp751
(dp752
g15
I600
sg16
g202
sbag9
(g10
g11
Ntp753
Rp754
(dp755
g15
I591
sg16
g202
sbag9
(g10
g11
Ntp756
Rp757
(dp758
g15
I590
sg16
g202
sbag9
(g10
g11
Ntp759
Rp760
(dp761
g15
I591
sg16
g202
sbag9
(g10
g11
Ntp762
Rp763
(dp764
g15
I600
sg16
g202
sbasg240
(lp765
g9
(g10
g11
Ntp766
Rp767
(dp768
g15
I782
sg16
g240
sbag9
(g10
g11
Ntp769
Rp770
(dp771
g15
I787
sg16
g240
sbag9
(g10
g11
Ntp772
Rp773
(dp774
g15
I780
sg16
g240
sbag9
(g10
g11
Ntp775
Rp776
(dp777
g15
I787
sg16
g240
sbag9
(g10
g11
Ntp778
Rp779
(dp780
g15
I750
sg16
g240
sbag9
(g10
g11
Ntp781
Rp782
(dp783
g15
I780
sg16
g240
sbag9
(g10
g11
Ntp784
Rp785
(dp786
g15
I768
sg16
g240
sbag9
(g10
g11
Ntp787
Rp788
(dp789
g15
I768
sg16
g240
sbag9
(g10
g11
Ntp790
Rp791
(dp792
g15
I775
sg16
g240
sbag9
(g10
g11
Ntp793
Rp794
(dp795
g15
I768
sg16
g240
sbag9
(g10
g11
Ntp796
Rp797
(dp798
g15
I775
sg16
g240
sbag9
(g10
g11
Ntp799
Rp800
(dp801
g15
I771
sg16
g240
sbass(F2.5
F10.0
tp802
g0
(g1
tp803
Rp804
g7
(lp805
g9
(g10
g11
Ntp806
Rp807
(dp808
g15
I334
sg16
g7
sbag9
(g10
g11
Ntp809
Rp810
(dp811
g15
I364
sg16
g7
sbag9
(g10
g11
Ntp812
Rp813
(dp814
g15
I359
sg16
g7
sbag9
(g10
g11
Ntp815
Rp816
(dp817
g15
I353
sg16
g7
sbag9
(g10
g11
Ntp818
Rp819
(dp820
g15
I339
sg16
g7
sbag9
(g10
g11
Ntp821
Rp822
(dp823
g15
I355
sg16
g7
sbag9
(g10
g11
Ntp824
Rp825
(dp826
g15
I359
sg16
g7
sbag9
(g10
g11
Ntp827
Rp828
(dp829
g15
I359
sg16
g7
sbag9
(g10
g11
Ntp830
Rp831
(dp832
g15
I350
sg16
g7
sbag9
(g10
g11
Ntp833
Rp834
(dp835
g15
I344
sg16
g7
sbag9
(g10
g11
Ntp836
Rp837
(dp838
g15
I352
sg16
g7
sbag9
(g10
g11
Ntp839
Rp840
(dp841
g15
I355
sg16
g7
sbasg50
(lp842
g9
(g10
g11
Ntp843
Rp844
(dp845
g15
I536
sg16
g50
sbag9
(g10
g11
Ntp846
Rp847
(dp848
g15
I536
sg16
g50
sbag9
(g10
g11
Ntp849
Rp850
(dp851
g15
I536
sg16
g50
sbag9
(g10
g11
Ntp852
Rp853
(dp854
g15
I536
sg16
g50
sbag9
(g10
g11
Ntp855
Rp856
(dp857
g15
I536
sg16
g50
sbag9
(g10
g11
Ntp858
Rp859
(dp860
g15
I536
sg16
g50
sbag9
(g10
g11
Ntp861
Rp862
(dp863
g15
I536
sg16
g50
sbag9
(g10
g11
Ntp864
Rp865
(dp866
g15
I536
sg16
g50
sbag9
(g10
g11
Ntp867
Rp868
(dp869
g15
I543
sg16
g50
sbag9
(g10
g11
Ntp870
Rp871
(dp872
g15
I536
sg16
g50
sbag9
(g10
g11
Ntp873
Rp874
(dp875
g15
I536
sg16
g50
sbag9
(g10
g11
Ntp876
Rp877
(dp878
g15
I547
sg16
g50
sbasg88
(lp879
g9
(g10
g11
Ntp880
Rp881
(dp882
g15
I448
sg16
g88
sbag9
(g10
g11
Ntp883
Rp884
(dp885
g15
I440
sg16
g88
sbag9
(g10
g11
Ntp886
Rp887
(dp888
g15
I448
sg16
g88
sbag9
(g10
g11
Ntp889
Rp890
(dp891
g15
I444
sg16
g88
sbag9
(g10
g11
Ntp892
Rp893
(dp894
g15
I448
sg16
g88
sbag9
(g10
g11
Ntp895
Rp896
(dp897
g15
I435
sg16
g88
sbag9
(g10
g11
Ntp898
Rp899
(dp900
g15
I444
sg16
g88
sbag9
(g10
g11
Ntp901
Rp902
(dp903
g15
I448
sg16
g88
sbag9
(g10
g11
Ntp904
Rp905
(dp906
g15
I440
sg16
g88
sbag9
(g10
g11
Ntp907
Rp908
(dp909
g15
I449
sg16
g88
sbag9
(g10
g11
Ntp910
Rp911
(dp912
g15
I444
sg16
g88
sbag9
(g10
g11
Ntp913
Rp914
(dp915
g15
I448
sg16
g88
sbasg126
(lp916
g9
(g10
g11
Ntp917
Rp918
(dp919
g15
I55918
sg16
g126
sbag9
(g10
g11
Ntp920
Rp921
(dp922
g15
I64714
sg16
g126
sbag9
(g10
g11
Ntp923
Rp924
(dp925
g15
I7975
sg16
g126
sbag9
(g10
g11
Ntp926
Rp927
(dp928
g15
I31242
sg16
g126
sbag9
(g10
g11
Ntp929
Rp930
(dp931
g15
I40039
sg16
g126
sbag9
(g10
g11
Ntp932
Rp933
(dp934
g15
I48835
sg16
g126
sbag9
(g10
g11
Ntp935
Rp936
(dp937
g15
I6568
sg16
g126
sbag9
(g10
g11
Ntp938
Rp939
(dp940
g15
I15363
sg16
g126
sbag9
(g10
g11
Ntp941
Rp942
(dp943
g15
I24160
sg16
g126
sbag9
(g10
g11
Ntp944
Rp945
(dp946
g15
I47429
sg16
g126
sbag9
(g10
g11
Ntp947
Rp948
(dp949
g15
I56227
sg16
g126
sbag9
(g10
g11
Ntp950
Rp951
(dp952
g15
I65024
sg16
g126
sbasg164
(lp953
g9
(g10
g11
Ntp954
Rp955
(dp956
g15
I487
sg16
g164
sbag9
(g10
g11
Ntp957
Rp958
(dp959
g15
I496
sg16
g164
sbag9
(g10
g11
Ntp960
Rp961
(dp962
g15
I476
sg16
g164
sbag9
(g10
g11
Ntp963
Rp964
(dp965
g15
I451
sg16
g164
sbag9
(g10
g11
Ntp966
Rp967
(dp968
g15
I467
sg16
g164
sbag9
(g10
g11
Ntp969
Rp970
(dp971
g15
I481
sg16
g164
sbag9
(g10
g11
Ntp972
Rp973
(dp974
g15
I476
sg16
g164
sbag9
(g10
g11
Ntp975
Rp976
(dp977
g15
I457
sg16
g164
sbag9
(g10
g11
Ntp978
Rp979
(dp980
g15
I462
sg16
g164
sbag9
(g10
g11
Ntp981
Rp982
(dp983
g15
I472
sg16
g164
sbag9
(g10
g11
Ntp984
Rp985
(dp986
g15
I480
sg16
g164
sbag9
(g10
g11
Ntp987
Rp988
(dp989
g15
I476
sg16
g164
sbasg202
(lp990
g9
(g10
g11
Ntp991
Rp992
(dp993
g15
I652
sg16
g202
sbag9
(g10
g11
Ntp994
Rp995
(dp996
g15
I639
sg16
g202
sbag9
(g10
g11
Ntp997
Rp998
(dp999
g15
I636
sg16
g202
sbag9
(g10
g11
Ntp1000
Rp1001
(dp1002
g15
I639
sg16
g202
sbag9
(g10
g11
Ntp1003
Rp1004
(dp1005
g15
I636
sg16
g202
sbag9
(g10
g11
Ntp1006
Rp1007
(dp1008
g15
I654
sg16
g202
sbag9
(g10
g11
Ntp1009
Rp1010
(dp1011
g15
I639
sg16
g202
sbag9
(g10
g11
Ntp1012
Rp1013
(dp1014
g15
I636
sg16
g202
sbag9
(g10
g11
Ntp1015
Rp1016
(dp1017
g15
I652
sg16
g202
sbag9
(g10
g11
Ntp1018
Rp1019
(dp1020
g15
I632
sg16
g202
sbag9
(g10
g11
Ntp1021
Rp1022
(dp1023
g15
I647
sg16
g202
sbag9
(g10
g11
Ntp1024
Rp1025
(dp1026
g15
I632
sg16
g202
sbasg240
(lp1027
g9
(g10
g11
Ntp1028
Rp1029
(dp1030
g15
I743
sg16
g240
sbag9
(g10
g11
Ntp1031
Rp1032
(dp1033
g15
I743
sg16
g240
sbag9
(g10
g11
Ntp1034
Rp1035
(dp1036
g15
I775
sg16
g240
sbag9
(g10
g11
Ntp1037
Rp1038
(dp1039
g15
I792
sg16
g240
sbag9
(g10
g11
Ntp1040
Rp1041
(dp1042
g15
I783
sg16
g240
sbag9
(g10
g11
Ntp1043
Rp1044
(dp1045
g15
I752
sg16
g240
sbag9
(g10
g11
Ntp1046
Rp1047
(dp1048
g15
I768
sg16
g240
sbag9
(g10
g11
Ntp1049
Rp1050
(dp1051
g15
I785
sg16
g240
sbag9
(g10
g11
Ntp1052
Rp1053
(dp1054
g15
I775
sg16
g240
sbag9
(g10
g11
Ntp1055
Rp1056
(dp1057
g15
I777
sg16
g240
sbag9
(g10
g11
Ntp1058
Rp1059
(dp1060
g15
I760
sg16
g240
sbag9
(g10
g11
Ntp1061
Rp1062
(dp1063
g15
I768
sg16
g240
sbass(F5.0
F-5.0
tp1064
g0
(g1
tp1065
Rp1066
g7
(lp1067
g9
(g10
g11
Ntp1068
Rp1069
(dp1070
g15
I344
sg16
g7
sbag9
(g10
g11
Ntp1071
Rp1072
(dp1073
g15
I368
sg16
g7
sbag9
(g10
g11
Ntp1074
Rp1075
(dp1076
g15
I359
sg16
g7
sbag9
(g10
g11
Ntp1077
Rp1078
(dp1079
g15
I348
sg16
g7
sbag9
(g10
g11
Ntp1080
Rp1081
(dp1082
g15
I339
sg16
g7
sbag9
(g10
g11
Ntp1083
Rp1084
(dp1085
g15
I355
sg16
g7
sbag9
(g10
g11
Ntp1086
Rp1087
(dp1088
g15
I352
sg16
g7
sbag9
(g10
g11
Ntp1089
Rp1090
(dp1091
g15
I352
sg16
g7
sbag9
(g10
g11
Ntp1092
Rp1093
(dp1094
g15
I335
sg16
g7
sbag9
(g10
g11
Ntp1095
Rp1096
(dp1097
g15
I359
sg16
g7
sbag9
(g10
g11
Ntp1098
Rp1099
(dp1100
g15
I339
sg16
g7
sbag9
(g10
g11
Ntp1101
Rp1102
(dp1103
g15
I345
sg16
g7
sbasg50
(lp1104
g9
(g10
g11
Ntp1105
Rp1106
(dp1107
g15
I543
sg16
g50
sbag9
(g10
g11
Ntp1108
Rp1109
(dp1110
g15
I536
sg16
g50
sbag9
(g10
g11
Ntp1111
Rp1112
(dp1113
g15
I536
sg16
g50
sbag9
(g10
g11
Ntp1114
Rp1115
(dp1116
g15
I543
sg16
g50
sbag9
(g10
g11
Ntp1117
Rp1118
(dp1119
g15
I536
sg16
g50
sbag9
(g10
g11
Ntp1120
Rp1121
(dp1122
g15
I536
sg16
g50
sbag9
(g10
g11
Ntp1123
Rp1124
(dp1125
g15
I540
sg16
g50
sbag9
(g10
g11
Ntp1126
Rp1127
(dp1128
g15
I536
sg16
g50
sbag9
(g10
g11
Ntp1129
Rp1130
(dp1131
g15
I536
sg16
g50
sbag9
(g10
g11
Ntp1132
Rp1133
(dp1134
g15
I536
sg16
g50
sbag9
(g10
g11
Ntp1135
Rp1136
(dp1137
g15
I536
sg16
g50
sbag9
(g10
g11
Ntp1138
Rp1139
(dp1140
g15
I532
sg16
g50
sbasg88
(lp1141
g9
(g10
g11
Ntp1142
Rp1143
(dp1144
g15
I472
sg16
g88
sbag9
(g10
g11
Ntp1145
Rp1146
(dp1147
g15
I472
sg16
g88
sbag9
(g10
g11
Ntp1148
Rp1149
(dp1150
g15
I457
sg16
g88
sbag9
(g10
g11
Ntp1151
Rp1152
(dp1153
g15
I472
sg16
g88
sbag9
(g10
g11
Ntp1154
Rp1155
(dp1156
g15
I452
sg16
g88
sbag9
(g10
g11
Ntp1157
Rp1158
(dp1159
g15
I440
sg16
g88
sbag9
(g10
g11
Ntp1160
Rp1161
(dp1162
g15
I448
sg16
g88
sbag9
(g10
g11
Ntp1163
Rp1164
(dp1165
g15
I448
sg16
g88
sbag9
(g10
g11
Ntp1166
Rp1167
(dp1168
g15
I444
sg16
g88
sbag9
(g10
g11
Ntp1169
Rp1170
(dp1171
g15
I448
sg16
g88
sbag9
(g10
g11
Ntp1172
Rp1173
(dp1174
g15
I448
sg16
g88
sbag9
(g10
g11
Ntp1175
Rp1176
(dp1177
g15
I448
sg16
g88
sbasg126
(lp1178
g9
(g10
g11
Ntp1179
Rp1180
(dp1181
g15
I64708
sg16
g126
sbag9
(g10
g11
Ntp1182
Rp1183
(dp1184
g15
I7969
sg16
g126
sbag9
(g10
g11
Ntp1185
Rp1186
(dp1187
g15
I16765
sg16
g126
sbag9
(g10
g11
Ntp1188
Rp1189
(dp1190
g15
I40033
sg16
g126
sbag9
(g10
g11
Ntp1191
Rp1192
(dp1193
g15
I48829
sg16
g126
sbag9
(g10
g11
Ntp1194
Rp1195
(dp1196
g15
I57626
sg16
g126
sbag9
(g10
g11
Ntp1197
Rp1198
(dp1199
g15
I15355
sg16
g126
sbag9
(g10
g11
Ntp1200
Rp1201
(dp1202
g15
I24152
sg16
g126
sbag9
(g10
g11
Ntp1203
Rp1204
(dp1205
g15
I32948
sg16
g126
sbag9
(g10
g11
Ntp1206
Rp1207
(dp1208
g15
I56216
sg16
g126
sbag9
(g10
g11
Ntp1209
Rp1210
(dp1211
g15
I65012
sg16
g126
sbag9
(g10
g11
Ntp1212
Rp1213
(dp1214
g15
I8273
sg16
g126
sbasg164
(lp1215
g9
(g10
g11
Ntp1216
Rp1217
(dp1218
g15
I483
sg16
g164
sbag9
(g10
g11
Ntp1219
Rp1220
(dp1221
g15
I467
sg16
g164
sbag9
(g10
g11
Ntp1222
Rp1223
(dp1224
g15
I460
sg16
g164
sbag9
(g10
g11
Ntp1225
Rp1226
(dp1227
g15
I449
sg16
g164
sbag9
(g10
g11
Ntp1228
Rp1229
(dp1230
g15
I467
sg16
g164
sbag9
(g10
g11
Ntp1231
Rp1232
(dp1233
g15
I472
sg16
g164
sbag9
(g10
g11
Ntp1234
Rp1235
(dp1236
g15
I451
sg16
g164
sbag9
(g10
g11
Ntp1237
Rp1238
(dp1239
g15
I451
sg16
g164
sbag9
(g10
g11
Ntp1240
Rp1241
(dp1242
g15
I455
sg16
g164
sbag9
(g10
g11
Ntp1243
Rp1244
(dp1245
g15
I448
sg16
g164
sbag9
(g10
g11
Ntp1246
Rp1247
(dp1248
g15
I449
sg16
g164
sbag9
(g10
g11
Ntp1249
Rp1250
(dp1251
g15
I472
sg16
g164
sbasg202
(lp1252
g9
(g10
g11
Ntp1253
Rp1254
(dp1255
g15
I590
sg16
g202
sbag9
(g10
g11
Ntp1256
Rp1257
(dp1258
g15
I579
sg16
g202
sbag9
(g10
g11
Ntp1259
Rp1260
(dp1261
g15
I575
sg16
g202
sbag9
(g10
g11
Ntp1262
Rp1263
(dp1264
g15
I611
sg16
g202
sbag9
(g10
g11
Ntp1265
Rp1266
(dp1267
g15
I588
sg16
g202
sbag9
(g10
g11
Ntp1268
Rp1269
(dp1270
g15
I572
sg16
g202
sbag9
(g10
g11
Ntp1271
Rp1272
(dp1273
g15
I575
sg16
g202
sbag9
(g10
g11
Ntp1274
Rp1275
(dp1276
g15
I568
sg16
g202
sbag9
(g10
g11
Ntp1277
Rp1278
(dp1279
g15
I575
sg16
g202
sbag9
(g10
g11
Ntp1280
Rp1281
(dp1282
g15
I568
sg16
g202
sbag9
(g10
g11
Ntp1283
Rp1284
(dp1285
g15
I572
sg16
g202
sbag9
(g10
g11
Ntp1286
Rp1287
(dp1288
g15
I572
sg16
g202
sbasg240
(lp1289
g9
(g10
g11
Ntp1290
Rp1291
(dp1292
g15
I732
sg16
g240
sbag9
(g10
g11
Ntp1293
Rp1294
(dp1295
g15
I748
sg16
g240
sbag9
(g10
g11
Ntp1296
Rp1297
(dp1298
g15
I792
sg16
g240
sbag9
(g10
g11
Ntp1299
Rp1300
(dp1301
g15
I742
sg16
g240
sbag9
(g10
g11
Ntp1302
Rp1303
(dp1304
g15
I748
sg16
g240
sbag9
(g10
g11
Ntp1305
Rp1306
(dp1307
g15
I760
sg16
g240
sbag9
(g10
g11
Ntp1308
Rp1309
(dp1310
g15
I774
sg16
g240
sbag9
(g10
g11
Ntp1311
Rp1312
(dp1313
g15
I792
sg16
g240
sbag9
(g10
g11
Ntp1314
Rp1315
(dp1316
g15
I775
sg16
g240
sbag9
(g10
g11
Ntp1317
Rp1318
(dp1319
g15
I787
sg16
g240
sbag9
(g10
g11
Ntp1320
Rp1321
(dp1322
g15
I787
sg16
g240
sbag9
(g10
g11
Ntp1323
Rp1324
(dp1325
g15
I760
sg16
g240
sbass(F-5.0
F-10.0
tp1326
g0
(g1
tp1327
Rp1328
g7
(lp1329
g9
(g10
g11
Ntp1330
Rp1331
(dp1332
g15
I352
sg16
g7
sbag9
(g10
g11
Ntp1333
Rp1334
(dp1335
g15
I352
sg16
g7
sbag9
(g10
g11
Ntp1336
Rp1337
(dp1338
g15
I352
sg16
g7
sbag9
(g10
g11
Ntp1339
Rp1340
(dp1341
g15
I352
sg16
g7
sbag9
(g10
g11
Ntp1342
Rp1343
(dp1344
g15
I352
sg16
g7
sbag9
(g10
g11
Ntp1345
Rp1346
(dp1347
g15
I352
sg16
g7
sbag9
(g10
g11
Ntp1348
Rp1349
(dp1350
g15
I352
sg16
g7
sbag9
(g10
g11
Ntp1351
Rp1352
(dp1353
g15
I352
sg16
g7
sbag9
(g10
g11
Ntp1354
Rp1355
(dp1356
g15
I352
sg16
g7
sbag9
(g10
g11
Ntp1357
Rp1358
(dp1359
g15
I352
sg16
g7
sbag9
(g10
g11
Ntp1360
Rp1361
(dp1362
g15
I352
sg16
g7
sbag9
(g10
g11
Ntp1363
Rp1364
(dp1365
g15
I352
sg16
g7
sbasg50
(lp1366
g9
(g10
g11
Ntp1367
Rp1368
(dp1369
g15
I551
sg16
g50
sbag9
(g10
g11
Ntp1370
Rp1371
(dp1372
g15
I536
sg16
g50
sbag9
(g10
g11
Ntp1373
Rp1374
(dp1375
g15
I536
sg16
g50
sbag9
(g10
g11
Ntp1376
Rp1377
(dp1378
g15
I547
sg16
g50
sbag9
(g10
g11
Ntp1379
Rp1380
(dp1381
g15
I536
sg16
g50
sbag9
(g10
g11
Ntp1382
Rp1383
(dp1384
g15
I536
sg16
g50
sbag9
(g10
g11
Ntp1385
Rp1386
(dp1387
g15
I542
sg16
g50
sbag9
(g10
g11
Ntp1388
Rp1389
(dp1390
g15
I536
sg16
g50
sbag9
(g10
g11
Ntp1391
Rp1392
(dp1393
g15
I536
sg16
g50
sbag9
(g10
g11
Ntp1394
Rp1395
(dp1396
g15
I540
sg16
g50
sbag9
(g10
g11
Ntp1397
Rp1398
(dp1399
g15
I536
sg16
g50
sbag9
(g10
g11
Ntp1400
Rp1401
(dp1402
g15
I536
sg16
g50
sbasg88
(lp1403
g9
(g10
g11
Ntp1404
Rp1405
(dp1406
g15
I440
sg16
g88
sbag9
(g10
g11
Ntp1407
Rp1408
(dp1409
g15
I448
sg16
g88
sbag9
(g10
g11
Ntp1410
Rp1411
(dp1412
g15
I448
sg16
g88
sbag9
(g10
g11
Ntp1413
Rp1414
(dp1415
g15
I440
sg16
g88
sbag9
(g10
g11
Ntp1416
Rp1417
(dp1418
g15
I448
sg16
g88
sbag9
(g10
g11
Ntp1419
Rp1420
(dp1421
g15
I448
sg16
g88
sbag9
(g10
g11
Ntp1422
Rp1423
(dp1424
g15
I440
sg16
g88
sbag9
(g10
g11
Ntp1425
Rp1426
(dp1427
g15
I448
sg16
g88
sbag9
(g10
g11
Ntp1428
Rp1429
(dp1430
g15
I448
sg16
g88
sbag9
(g10
g11
Ntp1431
Rp1432
(dp1433
g15
I444
sg16
g88
sbag9
(g10
g11
Ntp1434
Rp1435
(dp1436
g15
I448
sg16
g88
sbag9
(g10
g11
Ntp1437
Rp1438
(dp1439
g15
I448
sg16
g88
sbasg126
(lp1440
g9
(g10
g11
Ntp1441
Rp1442
(dp1443
g15
I28501
sg16
g126
sbag9
(g10
g11
Ntp1444
Rp1445
(dp1446
g15
I37299
sg16
g126
sbag9
(g10
g11
Ntp1447
Rp1448
(dp1449
g15
I46096
sg16
g126
sbag9
(g10
g11
Ntp1450
Rp1451
(dp1452
g15
I3827
sg16
g126
sbag9
(g10
g11
Ntp1453
Rp1454
(dp1455
g15
I12624
sg16
g126
sbag9
(g10
g11
Ntp1456
Rp1457
(dp1458
g15
I21420
sg16
g126
sbag9
(g10
g11
Ntp1459
Rp1460
(dp1461
g15
I44688
sg16
g126
sbag9
(g10
g11
Ntp1462
Rp1463
(dp1464
g15
I53484
sg16
g126
sbag9
(g10
g11
Ntp1465
Rp1466
(dp1467
g15
I62281
sg16
g126
sbag9
(g10
g11
Ntp1468
Rp1469
(dp1470
g15
I20010
sg16
g126
sbag9
(g10
g11
Ntp1471
Rp1472
(dp1473
g15
I28807
sg16
g126
sbag9
(g10
g11
Ntp1474
Rp1475
(dp1476
g15
I37603
sg16
g126
sbasg164
(lp1477
g9
(g10
g11
Ntp1478
Rp1479
(dp1480
g15
I504
sg16
g164
sbag9
(g10
g11
Ntp1481
Rp1482
(dp1483
g15
I504
sg16
g164
sbag9
(g10
g11
Ntp1484
Rp1485
(dp1486
g15
I504
sg16
g164
sbag9
(g10
g11
Ntp1487
Rp1488
(dp1489
g15
I504
sg16
g164
sbag9
(g10
g11
Ntp1490
Rp1491
(dp1492
g15
I508
sg16
g164
sbag9
(g10
g11
Ntp1493
Rp1494
(dp1495
g15
I504
sg16
g164
sbag9
(g10
g11
Ntp1496
Rp1497
(dp1498
g15
I505
sg16
g164
sbag9
(g10
g11
Ntp1499
Rp1500
(dp1501
g15
I504
sg16
g164
sbag9
(g10
g11
Ntp1502
Rp1503
(dp1504
g15
I504
sg16
g164
sbag9
(g10
g11
Ntp1505
Rp1506
(dp1507
g15
I504
sg16
g164
sbag9
(g10
g11
Ntp1508
Rp1509
(dp1510
g15
I508
sg16
g164
sbag9
(g10
g11
Ntp1511
Rp1512
(dp1513
g15
I504
sg16
g164
sbasg202
(lp1514
g9
(g10
g11
Ntp1515
Rp1516
(dp1517
g15
I551
sg16
g202
sbag9
(g10
g11
Ntp1518
Rp1519
(dp1520
g15
I550
sg16
g202
sbag9
(g10
g11
Ntp1521
Rp1522
(dp1523
g15
I547
sg16
g202
sbag9
(g10
g11
Ntp1524
Rp1525
(dp1526
g15
I551
sg16
g202
sbag9
(g10
g11
Ntp1527
Rp1528
(dp1529
g15
I550
sg16
g202
sbag9
(g10
g11
Ntp1530
Rp1531
(dp1532
g15
I545
sg16
g202
sbag9
(g10
g11
Ntp1533
Rp1534
(dp1535
g15
I543
sg16
g202
sbag9
(g10
g11
Ntp1536
Rp1537
(dp1538
g15
I547
sg16
g202
sbag9
(g10
g11
Ntp1539
Rp1540
(dp1541
g15
I547
sg16
g202
sbag9
(g10
g11
Ntp1542
Rp1543
(dp1544
g15
I551
sg16
g202
sbag9
(g10
g11
Ntp1545
Rp1546
(dp1547
g15
I548
sg16
g202
sbag9
(g10
g11
Ntp1548
Rp1549
(dp1550
g15
I547
sg16
g202
sbasg240
(lp1551
g9
(g10
g11
Ntp1552
Rp1553
(dp1554
g15
I768
sg16
g240
sbag9
(g10
g11
Ntp1555
Rp1556
(dp1557
g15
I768
sg16
g240
sbag9
(g10
g11
Ntp1558
Rp1559
(dp1560
g15
I768
sg16
g240
sbag9
(g10
g11
Ntp1561
Rp1562
(dp1563
g15
I768
sg16
g240
sbag9
(g10
g11
Ntp1564
Rp1565
(dp1566
g15
I769
sg16
g240
sbag9
(g10
g11
Ntp1567
Rp1568
(dp1569
g15
I768
sg16
g240
sbag9
(g10
g11
Ntp1570
Rp1571
(dp1572
g15
I768
sg16
g240
sbag9
(g10
g11
Ntp1573
Rp1574
(dp1575
g15
I768
sg16
g240
sbag9
(g10
g11
Ntp1576
Rp1577
(dp1578
g15
I768
sg16
g240
sbag9
(g10
g11
Ntp1579
Rp1580
(dp1581
g15
I768
sg16
g240
sbag9
(g10
g11
Ntp1582
Rp1583
(dp1584
g15
I768
sg16
g240
sbag9
(g10
g11
Ntp1585
Rp1586
(dp1587
g15
I768
sg16
g240
sbass(F-2.5
F-5.0
tp1588
g0
(g1
tp1589
Rp1590
g7
(lp1591
g9
(g10
g11
Ntp1592
Rp1593
(dp1594
g15
I352
sg16
g7
sbag9
(g10
g11
Ntp1595
Rp1596
(dp1597
g15
I352
sg16
g7
sbag9
(g10
g11
Ntp1598
Rp1599
(dp1600
g15
I352
sg16
g7
sbag9
(g10
g11
Ntp1601
Rp1602
(dp1603
g15
I352
sg16
g7
sbag9
(g10
g11
Ntp1604
Rp1605
(dp1606
g15
I352
sg16
g7
sbag9
(g10
g11
Ntp1607
Rp1608
(dp1609
g15
I352
sg16
g7
sbag9
(g10
g11
Ntp1610
Rp1611
(dp1612
g15
I352
sg16
g7
sbag9
(g10
g11
Ntp1613
Rp1614
(dp1615
g15
I352
sg16
g7
sbag9
(g10
g11
Ntp1616
Rp1617
(dp1618
g15
I352
sg16
g7
sbag9
(g10
g11
Ntp1619
Rp1620
(dp1621
g15
I352
sg16
g7
sbag9
(g10
g11
Ntp1622
Rp1623
(dp1624
g15
I352
sg16
g7
sbag9
(g10
g11
Ntp1625
Rp1626
(dp1627
g15
I352
sg16
g7
sbasg50
(lp1628
g9
(g10
g11
Ntp1629
Rp1630
(dp1631
g15
I536
sg16
g50
sbag9
(g10
g11
Ntp1632
Rp1633
(dp1634
g15
I536
sg16
g50
sbag9
(g10
g11
Ntp1635
Rp1636
(dp1637
g15
I536
sg16
g50
sbag9
(g10
g11
Ntp1638
Rp1639
(dp1640
g15
I536
sg16
g50
sbag9
(g10
g11
Ntp1641
Rp1642
(dp1643
g15
I536
sg16
g50
sbag9
(g10
g11
Ntp1644
Rp1645
(dp1646
g15
I536
sg16
g50
sbag9
(g10
g11
Ntp1647
Rp1648
(dp1649
g15
I536
sg16
g50
sbag9
(g10
g11
Ntp1650
Rp1651
(dp1652
g15
I536
sg16
g50
sbag9
(g10
g11
Ntp1653
Rp1654
(dp1655
g15
I536
sg16
g50
sbag9
(g10
g11
Ntp1656
Rp1657
(dp1658
g15
I536
sg16
g50
sbag9
(g10
g11
Ntp1659
Rp1660
(dp1661
g15
I536
sg16
g50
sbag9
(g10
g11
Ntp1662
Rp1663
(dp1664
g15
I536
sg16
g50
sbasg88
(lp1665
g9
(g10
g11
Ntp1666
Rp1667
(dp1668
g15
I444
sg16
g88
sbag9
(g10
g11
Ntp1669
Rp1670
(dp1671
g15
I444
sg16
g88
sbag9
(g10
g11
Ntp1672
Rp1673
(dp1674
g15
I444
sg16
g88
sbag9
(g10
g11
Ntp1675
Rp1676
(dp1677
g15
I444
sg16
g88
sbag9
(g10
g11
Ntp1678
Rp1679
(dp1680
g15
I444
sg16
g88
sbag9
(g10
g11
Ntp1681
Rp1682
(dp1683
g15
I444
sg16
g88
sbag9
(g10
g11
Ntp1684
Rp1685
(dp1686
g15
I448
sg16
g88
sbag9
(g10
g11
Ntp1687
Rp1688
(dp1689
g15
I448
sg16
g88
sbag9
(g10
g11
Ntp1690
Rp1691
(dp1692
g15
I448
sg16
g88
sbag9
(g10
g11
Ntp1693
Rp1694
(dp1695
g15
I448
sg16
g88
sbag9
(g10
g11
Ntp1696
Rp1697
(dp1698
g15
I448
sg16
g88
sbag9
(g10
g11
Ntp1699
Rp1700
(dp1701
g15
I448
sg16
g88
sbasg126
(lp1702
g9
(g10
g11
Ntp1703
Rp1704
(dp1705
g15
I5754
sg16
g126
sbag9
(g10
g11
Ntp1706
Rp1707
(dp1708
g15
I14551
sg16
g126
sbag9
(g10
g11
Ntp1709
Rp1710
(dp1711
g15
I23347
sg16
g126
sbag9
(g10
g11
Ntp1712
Rp1713
(dp1714
g15
I46615
sg16
g126
sbag9
(g10
g11
Ntp1715
Rp1716
(dp1717
g15
I55411
sg16
g126
sbag9
(g10
g11
Ntp1718
Rp1719
(dp1720
g15
I64208
sg16
g126
sbag9
(g10
g11
Ntp1721
Rp1722
(dp1723
g15
I21937
sg16
g126
sbag9
(g10
g11
Ntp1724
Rp1725
(dp1726
g15
I30734
sg16
g126
sbag9
(g10
g11
Ntp1727
Rp1728
(dp1729
g15
I39530
sg16
g126
sbag9
(g10
g11
Ntp1730
Rp1731
(dp1732
g15
I62798
sg16
g126
sbag9
(g10
g11
Ntp1733
Rp1734
(dp1735
g15
I6058
sg16
g126
sbag9
(g10
g11
Ntp1736
Rp1737
(dp1738
g15
I14855
sg16
g126
sbasg164
(lp1739
g9
(g10
g11
Ntp1740
Rp1741
(dp1742
g15
I487
sg16
g164
sbag9
(g10
g11
Ntp1743
Rp1744
(dp1745
g15
I492
sg16
g164
sbag9
(g10
g11
Ntp1746
Rp1747
(dp1748
g15
I487
sg16
g164
sbag9
(g10
g11
Ntp1749
Rp1750
(dp1751
g15
I492
sg16
g164
sbag9
(g10
g11
Ntp1752
Rp1753
(dp1754
g15
I494
sg16
g164
sbag9
(g10
g11
Ntp1755
Rp1756
(dp1757
g15
I496
sg16
g164
sbag9
(g10
g11
Ntp1758
Rp1759
(dp1760
g15
I494
sg16
g164
sbag9
(g10
g11
Ntp1761
Rp1762
(dp1763
g15
I492
sg16
g164
sbag9
(g10
g11
Ntp1764
Rp1765
(dp1766
g15
I492
sg16
g164
sbag9
(g10
g11
Ntp1767
Rp1768
(dp1769
g15
I496
sg16
g164
sbag9
(g10
g11
Ntp1770
Rp1771
(dp1772
g15
I489
sg16
g164
sbag9
(g10
g11
Ntp1773
Rp1774
(dp1775
g15
I494
sg16
g164
sbasg202
(lp1776
g9
(g10
g11
Ntp1777
Rp1778
(dp1779
g15
I591
sg16
g202
sbag9
(g10
g11
Ntp1780
Rp1781
(dp1782
g15
I595
sg16
g202
sbag9
(g10
g11
Ntp1783
Rp1784
(dp1785
g15
I595
sg16
g202
sbag9
(g10
g11
Ntp1786
Rp1787
(dp1788
g15
I591
sg16
g202
sbag9
(g10
g11
Ntp1789
Rp1790
(dp1791
g15
I593
sg16
g202
sbag9
(g10
g11
Ntp1792
Rp1793
(dp1794
g15
I595
sg16
g202
sbag9
(g10
g11
Ntp1795
Rp1796
(dp1797
g15
I593
sg16
g202
sbag9
(g10
g11
Ntp1798
Rp1799
(dp1800
g15
I593
sg16
g202
sbag9
(g10
g11
Ntp1801
Rp1802
(dp1803
g15
I593
sg16
g202
sbag9
(g10
g11
Ntp1804
Rp1805
(dp1806
g15
I591
sg16
g202
sbag9
(g10
g11
Ntp1807
Rp1808
(dp1809
g15
I591
sg16
g202
sbag9
(g10
g11
Ntp1810
Rp1811
(dp1812
g15
I595
sg16
g202
sbasg240
(lp1813
g9
(g10
g11
Ntp1814
Rp1815
(dp1816
g15
I771
sg16
g240
sbag9
(g10
g11
Ntp1817
Rp1818
(dp1819
g15
I775
sg16
g240
sbag9
(g10
g11
Ntp1820
Rp1821
(dp1822
g15
I775
sg16
g240
sbag9
(g10
g11
Ntp1823
Rp1824
(dp1825
g15
I775
sg16
g240
sbag9
(g10
g11
Ntp1826
Rp1827
(dp1828
g15
I775
sg16
g240
sbag9
(g10
g11
Ntp1829
Rp1830
(dp1831
g15
I771
sg16
g240
sbag9
(g10
g11
Ntp1832
Rp1833
(dp1834
g15
I775
sg16
g240
sbag9
(g10
g11
Ntp1835
Rp1836
(dp1837
g15
I771
sg16
g240
sbag9
(g10
g11
Ntp1838
Rp1839
(dp1840
g15
I775
sg16
g240
sbag9
(g10
g11
Ntp1841
Rp1842
(dp1843
g15
I774
sg16
g240
sbag9
(g10
g11
Ntp1844
Rp1845
(dp1846
g15
I771
sg16
g240
sbag9
(g10
g11
Ntp1847
Rp1848
(dp1849
g15
I771
sg16
g240
sbass(F-5.0
F-5.0
tp1850
g0
(g1
tp1851
Rp1852
g7
(lp1853
g9
(g10
g11
Ntp1854
Rp1855
(dp1856
g15
I352
sg16
g7
sbag9
(g10
g11
Ntp1857
Rp1858
(dp1859
g15
I352
sg16
g7
sbag9
(g10
g11
Ntp1860
Rp1861
(dp1862
g15
I352
sg16
g7
sbag9
(g10
g11
Ntp1863
Rp1864
(dp1865
g15
I352
sg16
g7
sbag9
(g10
g11
Ntp1866
Rp1867
(dp1868
g15
I352
sg16
g7
sbag9
(g10
g11
Ntp1869
Rp1870
(dp1871
g15
I352
sg16
g7
sbag9
(g10
g11
Ntp1872
Rp1873
(dp1874
g15
I352
sg16
g7
sbag9
(g10
g11
Ntp1875
Rp1876
(dp1877
g15
I352
sg16
g7
sbag9
(g10
g11
Ntp1878
Rp1879
(dp1880
g15
I352
sg16
g7
sbag9
(g10
g11
Ntp1881
Rp1882
(dp1883
g15
I352
sg16
g7
sbag9
(g10
g11
Ntp1884
Rp1885
(dp1886
g15
I352
sg16
g7
sbag9
(g10
g11
Ntp1887
Rp1888
(dp1889
g15
I352
sg16
g7
sbasg50
(lp1890
g9
(g10
g11
Ntp1891
Rp1892
(dp1893
g15
I536
sg16
g50
sbag9
(g10
g11
Ntp1894
Rp1895
(dp1896
g15
I545
sg16
g50
sbag9
(g10
g11
Ntp1897
Rp1898
(dp1899
g15
I536
sg16
g50
sbag9
(g10
g11
Ntp1900
Rp1901
(dp1902
g15
I536
sg16
g50
sbag9
(g10
g11
Ntp1903
Rp1904
(dp1905
g15
I547
sg16
g50
sbag9
(g10
g11
Ntp1906
Rp1907
(dp1908
g15
I536
sg16
g50
sbag9
(g10
g11
Ntp1909
Rp1910
(dp1911
g15
I536
sg16
g50
sbag9
(g10
g11
Ntp1912
Rp1913
(dp1914
g15
I550
sg16
g50
sbag9
(g10
g11
Ntp1915
Rp1916
(dp1917
g15
I536
sg16
g50
sbag9
(g10
g11
Ntp1918
Rp1919
(dp1920
g15
I536
sg16
g50
sbag9
(g10
g11
Ntp1921
Rp1922
(dp1923
g15
I543
sg16
g50
sbag9
(g10
g11
Ntp1924
Rp1925
(dp1926
g15
I536
sg16
g50
sbasg88
(lp1927
g9
(g10
g11
Ntp1928
Rp1929
(dp1930
g15
I448
sg16
g88
sbag9
(g10
g11
Ntp1931
Rp1932
(dp1933
g15
I444
sg16
g88
sbag9
(g10
g11
Ntp1934
Rp1935
(dp1936
g15
I444
sg16
g88
sbag9
(g10
g11
Ntp1937
Rp1938
(dp1939
g15
I448
sg16
g88
sbag9
(g10
g11
Ntp1940
Rp1941
(dp1942
g15
I440
sg16
g88
sbag9
(g10
g11
Ntp1943
Rp1944
(dp1945
g15
I448
sg16
g88
sbag9
(g10
g11
Ntp1946
Rp1947
(dp1948
g15
I444
sg16
g88
sbag9
(g10
g11
Ntp1949
Rp1950
(dp1951
g15
I440
sg16
g88
sbag9
(g10
g11
Ntp1952
Rp1953
(dp1954
g15
I448
sg16
g88
sbag9
(g10
g11
Ntp1955
Rp1956
(dp1957
g15
I444
sg16
g88
sbag9
(g10
g11
Ntp1958
Rp1959
(dp1960
g15
I440
sg16
g88
sbag9
(g10
g11
Ntp1961
Rp1962
(dp1963
g15
I448
sg16
g88
sbasg126
(lp1964
g9
(g10
g11
Ntp1965
Rp1966
(dp1967
g15
I43466
sg16
g126
sbag9
(g10
g11
Ntp1968
Rp1969
(dp1970
g15
I52262
sg16
g126
sbag9
(g10
g11
Ntp1971
Rp1972
(dp1973
g15
I61059
sg16
g126
sbag9
(g10
g11
Ntp1974
Rp1975
(dp1976
g15
I18788
sg16
g126
sbag9
(g10
g11
Ntp1977
Rp1978
(dp1979
g15
I27585
sg16
g126
sbag9
(g10
g11
Ntp1980
Rp1981
(dp1982
g15
I36381
sg16
g126
sbag9
(g10
g11
Ntp1983
Rp1984
(dp1985
g15
I59649
sg16
g126
sbag9
(g10
g11
Ntp1986
Rp1987
(dp1988
g15
I2909
sg16
g126
sbag9
(g10
g11
Ntp1989
Rp1990
(dp1991
g15
I11706
sg16
g126
sbag9
(g10
g11
Ntp1992
Rp1993
(dp1994
g15
I34971
sg16
g126
sbag9
(g10
g11
Ntp1995
Rp1996
(dp1997
g15
I43768
sg16
g126
sbag9
(g10
g11
Ntp1998
Rp1999
(dp2000
g15
I52564
sg16
g126
sbasg164
(lp2001
g9
(g10
g11
Ntp2002
Rp2003
(dp2004
g15
I504
sg16
g164
sbag9
(g10
g11
Ntp2005
Rp2006
(dp2007
g15
I508
sg16
g164
sbag9
(g10
g11
Ntp2008
Rp2009
(dp2010
g15
I504
sg16
g164
sbag9
(g10
g11
Ntp2011
Rp2012
(dp2013
g15
I504
sg16
g164
sbag9
(g10
g11
Ntp2014
Rp2015
(dp2016
g15
I504
sg16
g164
sbag9
(g10
g11
Ntp2017
Rp2018
(dp2019
g15
I504
sg16
g164
sbag9
(g10
g11
Ntp2020
Rp2021
(dp2022
g15
I504
sg16
g164
sbag9
(g10
g11
Ntp2023
Rp2024
(dp2025
g15
I504
sg16
g164
sbag9
(g10
g11
Ntp2026
Rp2027
(dp2028
g15
I504
sg16
g164
sbag9
(g10
g11
Ntp2029
Rp2030
(dp2031
g15
I505
sg16
g164
sbag9
(g10
g11
Ntp2032
Rp2033
(dp2034
g15
I504
sg16
g164
sbag9
(g10
g11
Ntp2035
Rp2036
(dp2037
g15
I504
sg16
g164
sbasg202
(lp2038
g9
(g10
g11
Ntp2039
Rp2040
(dp2041
g15
I547
sg16
g202
sbag9
(g10
g11
Ntp2042
Rp2043
(dp2044
g15
I551
sg16
g202
sbag9
(g10
g11
Ntp2045
Rp2046
(dp2047
g15
I550
sg16
g202
sbag9
(g10
g11
Ntp2048
Rp2049
(dp2050
g15
I551
sg16
g202
sbag9
(g10
g11
Ntp2051
Rp2052
(dp2053
g15
I548
sg16
g202
sbag9
(g10
g11
Ntp2054
Rp2055
(dp2056
g15
I551
sg16
g202
sbag9
(g10
g11
Ntp2057
Rp2058
(dp2059
g15
I550
sg16
g202
sbag9
(g10
g11
Ntp2060
Rp2061
(dp2062
g15
I547
sg16
g202
sbag9
(g10
g11
Ntp2063
Rp2064
(dp2065
g15
I551
sg16
g202
sbag9
(g10
g11
Ntp2066
Rp2067
(dp2068
g15
I547
sg16
g202
sbag9
(g10
g11
Ntp2069
Rp2070
(dp2071
g15
I551
sg16
g202
sbag9
(g10
g11
Ntp2072
Rp2073
(dp2074
g15
I547
sg16
g202
sbasg240
(lp2075
g9
(g10
g11
Ntp2076
Rp2077
(dp2078
g15
I768
sg16
g240
sbag9
(g10
g11
Ntp2079
Rp2080
(dp2081
g15
I768
sg16
g240
sbag9
(g10
g11
Ntp2082
Rp2083
(dp2084
g15
I769
sg16
g240
sbag9
(g10
g11
Ntp2085
Rp2086
(dp2087
g15
I768
sg16
g240
sbag9
(g10
g11
Ntp2088
Rp2089
(dp2090
g15
I768
sg16
g240
sbag9
(g10
g11
Ntp2091
Rp2092
(dp2093
g15
I768
sg16
g240
sbag9
(g10
g11
Ntp2094
Rp2095
(dp2096
g15
I768
sg16
g240
sbag9
(g10
g11
Ntp2097
Rp2098
(dp2099
g15
I768
sg16
g240
sbag9
(g10
g11
Ntp2100
Rp2101
(dp2102
g15
I768
sg16
g240
sbag9
(g10
g11
Ntp2103
Rp2104
(dp2105
g15
I768
sg16
g240
sbag9
(g10
g11
Ntp2106
Rp2107
(dp2108
g15
I768
sg16
g240
sbag9
(g10
g11
Ntp2109
Rp2110
(dp2111
g15
I769
sg16
g240
sbass(F0.0
F0.0
tp2112
g0
(g1
tp2113
Rp2114
g7
(lp2115
g9
(g10
g11
Ntp2116
Rp2117
(dp2118
g15
I352
sg16
g7
sbag9
(g10
g11
Ntp2119
Rp2120
(dp2121
g15
I352
sg16
g7
sbag9
(g10
g11
Ntp2122
Rp2123
(dp2124
g15
I352
sg16
g7
sbag9
(g10
g11
Ntp2125
Rp2126
(dp2127
g15
I352
sg16
g7
sbag9
(g10
g11
Ntp2128
Rp2129
(dp2130
g15
I352
sg16
g7
sbag9
(g10
g11
Ntp2131
Rp2132
(dp2133
g15
I352
sg16
g7
sbag9
(g10
g11
Ntp2134
Rp2135
(dp2136
g15
I352
sg16
g7
sbag9
(g10
g11
Ntp2137
Rp2138
(dp2139
g15
I352
sg16
g7
sbag9
(g10
g11
Ntp2140
Rp2141
(dp2142
g15
I352
sg16
g7
sbag9
(g10
g11
Ntp2143
Rp2144
(dp2145
g15
I352
sg16
g7
sbag9
(g10
g11
Ntp2146
Rp2147
(dp2148
g15
I352
sg16
g7
sbag9
(g10
g11
Ntp2149
Rp2150
(dp2151
g15
I352
sg16
g7
sbasg50
(lp2152
g9
(g10
g11
Ntp2153
Rp2154
(dp2155
g15
I536
sg16
g50
sbag9
(g10
g11
Ntp2156
Rp2157
(dp2158
g15
I536
sg16
g50
sbag9
(g10
g11
Ntp2159
Rp2160
(dp2161
g15
I536
sg16
g50
sbag9
(g10
g11
Ntp2162
Rp2163
(dp2164
g15
I536
sg16
g50
sbag9
(g10
g11
Ntp2165
Rp2166
(dp2167
g15
I536
sg16
g50
sbag9
(g10
g11
Ntp2168
Rp2169
(dp2170
g15
I536
sg16
g50
sbag9
(g10
g11
Ntp2171
Rp2172
(dp2173
g15
I536
sg16
g50
sbag9
(g10
g11
Ntp2174
Rp2175
(dp2176
g15
I536
sg16
g50
sbag9
(g10
g11
Ntp2177
Rp2178
(dp2179
g15
I536
sg16
g50
sbag9
(g10
g11
Ntp2180
Rp2181
(dp2182
g15
I536
sg16
g50
sbag9
(g10
g11
Ntp2183
Rp2184
(dp2185
g15
I536
sg16
g50
sbag9
(g10
g11
Ntp2186
Rp2187
(dp2188
g15
I540
sg16
g50
sbasg88
(lp2189
g9
(g10
g11
Ntp2190
Rp2191
(dp2192
g15
I448
sg16
g88
sbag9
(g10
g11
Ntp2193
Rp2194
(dp2195
g15
I448
sg16
g88
sbag9
(g10
g11
Ntp2196
Rp2197
(dp2198
g15
I448
sg16
g88
sbag9
(g10
g11
Ntp2199
Rp2200
(dp2201
g15
I448
sg16
g88
sbag9
(g10
g11
Ntp2202
Rp2203
(dp2204
g15
I444
sg16
g88
sbag9
(g10
g11
Ntp2205
Rp2206
(dp2207
g15
I448
sg16
g88
sbag9
(g10
g11
Ntp2208
Rp2209
(dp2210
g15
I448
sg16
g88
sbag9
(g10
g11
Ntp2211
Rp2212
(dp2213
g15
I448
sg16
g88
sbag9
(g10
g11
Ntp2214
Rp2215
(dp2216
g15
I444
sg16
g88
sbag9
(g10
g11
Ntp2217
Rp2218
(dp2219
g15
I444
sg16
g88
sbag9
(g10
g11
Ntp2220
Rp2221
(dp2222
g15
I448
sg16
g88
sbag9
(g10
g11
Ntp2223
Rp2224
(dp2225
g15
I444
sg16
g88
sbasg126
(lp2226
g9
(g10
g11
Ntp2227
Rp2228
(dp2229
g15
I31539
sg16
g126
sbag9
(g10
g11
Ntp2230
Rp2231
(dp2232
g15
I40335
sg16
g126
sbag9
(g10
g11
Ntp2233
Rp2234
(dp2235
g15
I49132
sg16
g126
sbag9
(g10
g11
Ntp2236
Rp2237
(dp2238
g15
I6861
sg16
g126
sbag9
(g10
g11
Ntp2239
Rp2240
(dp2241
g15
I15658
sg16
g126
sbag9
(g10
g11
Ntp2242
Rp2243
(dp2244
g15
I24454
sg16
g126
sbag9
(g10
g11
Ntp2245
Rp2246
(dp2247
g15
I47722
sg16
g126
sbag9
(g10
g11
Ntp2248
Rp2249
(dp2250
g15
I56518
sg16
g126
sbag9
(g10
g11
Ntp2251
Rp2252
(dp2253
g15
I65315
sg16
g126
sbag9
(g10
g11
Ntp2254
Rp2255
(dp2256
g15
I23131
sg16
g126
sbag9
(g10
g11
Ntp2257
Rp2258
(dp2259
g15
I31928
sg16
g126
sbag9
(g10
g11
Ntp2260
Rp2261
(dp2262
g15
I40724
sg16
g126
sbasg164
(lp2263
g9
(g10
g11
Ntp2264
Rp2265
(dp2266
g15
I480
sg16
g164
sbag9
(g10
g11
Ntp2267
Rp2268
(dp2269
g15
I483
sg16
g164
sbag9
(g10
g11
Ntp2270
Rp2271
(dp2272
g15
I483
sg16
g164
sbag9
(g10
g11
Ntp2273
Rp2274
(dp2275
g15
I486
sg16
g164
sbag9
(g10
g11
Ntp2276
Rp2277
(dp2278
g15
I483
sg16
g164
sbag9
(g10
g11
Ntp2279
Rp2280
(dp2281
g15
I480
sg16
g164
sbag9
(g10
g11
Ntp2282
Rp2283
(dp2284
g15
I483
sg16
g164
sbag9
(g10
g11
Ntp2285
Rp2286
(dp2287
g15
I481
sg16
g164
sbag9
(g10
g11
Ntp2288
Rp2289
(dp2290
g15
I480
sg16
g164
sbag9
(g10
g11
Ntp2291
Rp2292
(dp2293
g15
I481
sg16
g164
sbag9
(g10
g11
Ntp2294
Rp2295
(dp2296
g15
I480
sg16
g164
sbag9
(g10
g11
Ntp2297
Rp2298
(dp2299
g15
I483
sg16
g164
sbasg202
(lp2300
g9
(g10
g11
Ntp2301
Rp2302
(dp2303
g15
I572
sg16
g202
sbag9
(g10
g11
Ntp2304
Rp2305
(dp2306
g15
I568
sg16
g202
sbag9
(g10
g11
Ntp2307
Rp2308
(dp2309
g15
I572
sg16
g202
sbag9
(g10
g11
Ntp2310
Rp2311
(dp2312
g15
I572
sg16
g202
sbag9
(g10
g11
Ntp2313
Rp2314
(dp2315
g15
I568
sg16
g202
sbag9
(g10
g11
Ntp2316
Rp2317
(dp2318
g15
I572
sg16
g202
sbag9
(g10
g11
Ntp2319
Rp2320
(dp2321
g15
I568
sg16
g202
sbag9
(g10
g11
Ntp2322
Rp2323
(dp2324
g15
I572
sg16
g202
sbag9
(g10
g11
Ntp2325
Rp2326
(dp2327
g15
I568
sg16
g202
sbag9
(g10
g11
Ntp2328
Rp2329
(dp2330
g15
I572
sg16
g202
sbag9
(g10
g11
Ntp2331
Rp2332
(dp2333
g15
I568
sg16
g202
sbag9
(g10
g11
Ntp2334
Rp2335
(dp2336
g15
I575
sg16
g202
sbasg240
(lp2337
g9
(g10
g11
Ntp2338
Rp2339
(dp2340
g15
I771
sg16
g240
sbag9
(g10
g11
Ntp2341
Rp2342
(dp2343
g15
I775
sg16
g240
sbag9
(g10
g11
Ntp2344
Rp2345
(dp2346
g15
I771
sg16
g240
sbag9
(g10
g11
Ntp2347
Rp2348
(dp2349
g15
I769
sg16
g240
sbag9
(g10
g11
Ntp2350
Rp2351
(dp2352
g15
I774
sg16
g240
sbag9
(g10
g11
Ntp2353
Rp2354
(dp2355
g15
I771
sg16
g240
sbag9
(g10
g11
Ntp2356
Rp2357
(dp2358
g15
I771
sg16
g240
sbag9
(g10
g11
Ntp2359
Rp2360
(dp2361
g15
I769
sg16
g240
sbag9
(g10
g11
Ntp2362
Rp2363
(dp2364
g15
I771
sg16
g240
sbag9
(g10
g11
Ntp2365
Rp2366
(dp2367
g15
I768
sg16
g240
sbag9
(g10
g11
Ntp2368
Rp2369
(dp2370
g15
I774
sg16
g240
sbag9
(g10
g11
Ntp2371
Rp2372
(dp2373
g15
I771
sg16
g240
sbass(F5.0
F0.0
tp2374
g0
(g1
tp2375
Rp2376
g7
(lp2377
g9
(g10
g11
Ntp2378
Rp2379
(dp2380
g15
I359
sg16
g7
sbag9
(g10
g11
Ntp2381
Rp2382
(dp2383
g15
I348
sg16
g7
sbag9
(g10
g11
Ntp2384
Rp2385
(dp2386
g15
I355
sg16
g7
sbag9
(g10
g11
Ntp2387
Rp2388
(dp2389
g15
I339
sg16
g7
sbag9
(g10
g11
Ntp2390
Rp2391
(dp2392
g15
I368
sg16
g7
sbag9
(g10
g11
Ntp2393
Rp2394
(dp2395
g15
I359
sg16
g7
sbag9
(g10
g11
Ntp2396
Rp2397
(dp2398
g15
I355
sg16
g7
sbag9
(g10
g11
Ntp2399
Rp2400
(dp2401
g15
I352
sg16
g7
sbag9
(g10
g11
Ntp2402
Rp2403
(dp2404
g15
I355
sg16
g7
sbag9
(g10
g11
Ntp2405
Rp2406
(dp2407
g15
I352
sg16
g7
sbag9
(g10
g11
Ntp2408
Rp2409
(dp2410
g15
I348
sg16
g7
sbag9
(g10
g11
Ntp2411
Rp2412
(dp2413
g15
I353
sg16
g7
sbasg50
(lp2414
g9
(g10
g11
Ntp2415
Rp2416
(dp2417
g15
I536
sg16
g50
sbag9
(g10
g11
Ntp2418
Rp2419
(dp2420
g15
I547
sg16
g50
sbag9
(g10
g11
Ntp2421
Rp2422
(dp2423
g15
I536
sg16
g50
sbag9
(g10
g11
Ntp2424
Rp2425
(dp2426
g15
I540
sg16
g50
sbag9
(g10
g11
Ntp2427
Rp2428
(dp2429
g15
I542
sg16
g50
sbag9
(g10
g11
Ntp2430
Rp2431
(dp2432
g15
I536
sg16
g50
sbag9
(g10
g11
Ntp2433
Rp2434
(dp2435
g15
I543
sg16
g50
sbag9
(g10
g11
Ntp2436
Rp2437
(dp2438
g15
I537
sg16
g50
sbag9
(g10
g11
Ntp2439
Rp2440
(dp2441
g15
I536
sg16
g50
sbag9
(g10
g11
Ntp2442
Rp2443
(dp2444
g15
I547
sg16
g50
sbag9
(g10
g11
Ntp2445
Rp2446
(dp2447
g15
I536
sg16
g50
sbag9
(g10
g11
Ntp2448
Rp2449
(dp2450
g15
I536
sg16
g50
sbasg88
(lp2451
g9
(g10
g11
Ntp2452
Rp2453
(dp2454
g15
I480
sg16
g88
sbag9
(g10
g11
Ntp2455
Rp2456
(dp2457
g15
I455
sg16
g88
sbag9
(g10
g11
Ntp2458
Rp2459
(dp2460
g15
I444
sg16
g88
sbag9
(g10
g11
Ntp2461
Rp2462
(dp2463
g15
I449
sg16
g88
sbag9
(g10
g11
Ntp2464
Rp2465
(dp2466
g15
I435
sg16
g88
sbag9
(g10
g11
Ntp2467
Rp2468
(dp2469
g15
I449
sg16
g88
sbag9
(g10
g11
Ntp2470
Rp2471
(dp2472
g15
I440
sg16
g88
sbag9
(g10
g11
Ntp2473
Rp2474
(dp2475
g15
I444
sg16
g88
sbag9
(g10
g11
Ntp2476
Rp2477
(dp2478
g15
I448
sg16
g88
sbag9
(g10
g11
Ntp2479
Rp2480
(dp2481
g15
I440
sg16
g88
sbag9
(g10
g11
Ntp2482
Rp2483
(dp2484
g15
I448
sg16
g88
sbag9
(g10
g11
Ntp2485
Rp2486
(dp2487
g15
I444
sg16
g88
sbasg126
(lp2488
g9
(g10
g11
Ntp2489
Rp2490
(dp2491
g15
I54608
sg16
g126
sbag9
(g10
g11
Ntp2492
Rp2493
(dp2494
g15
I63404
sg16
g126
sbag9
(g10
g11
Ntp2495
Rp2496
(dp2497
g15
I6665
sg16
g126
sbag9
(g10
g11
Ntp2498
Rp2499
(dp2500
g15
I29930
sg16
g126
sbag9
(g10
g11
Ntp2501
Rp2502
(dp2503
g15
I38727
sg16
g126
sbag9
(g10
g11
Ntp2504
Rp2505
(dp2506
g15
I47523
sg16
g126
sbag9
(g10
g11
Ntp2507
Rp2508
(dp2509
g15
I5255
sg16
g126
sbag9
(g10
g11
Ntp2510
Rp2511
(dp2512
g15
I14051
sg16
g126
sbag9
(g10
g11
Ntp2513
Rp2514
(dp2515
g15
I22848
sg16
g126
sbag9
(g10
g11
Ntp2516
Rp2517
(dp2518
g15
I46113
sg16
g126
sbag9
(g10
g11
Ntp2519
Rp2520
(dp2521
g15
I54910
sg16
g126
sbag9
(g10
g11
Ntp2522
Rp2523
(dp2524
g15
I63706
sg16
g126
sbasg164
(lp2525
g9
(g10
g11
Ntp2526
Rp2527
(dp2528
g15
I455
sg16
g164
sbag9
(g10
g11
Ntp2529
Rp2530
(dp2531
g15
I465
sg16
g164
sbag9
(g10
g11
Ntp2532
Rp2533
(dp2534
g15
I463
sg16
g164
sbag9
(g10
g11
Ntp2535
Rp2536
(dp2537
g15
I467
sg16
g164
sbag9
(g10
g11
Ntp2538
Rp2539
(dp2540
g15
I465
sg16
g164
sbag9
(g10
g11
Ntp2541
Rp2542
(dp2543
g15
I448
sg16
g164
sbag9
(g10
g11
Ntp2544
Rp2545
(dp2546
g15
I457
sg16
g164
sbag9
(g10
g11
Ntp2547
Rp2548
(dp2549
g15
I462
sg16
g164
sbag9
(g10
g11
Ntp2550
Rp2551
(dp2552
g15
I462
sg16
g164
sbag9
(g10
g11
Ntp2553
Rp2554
(dp2555
g15
I460
sg16
g164
sbag9
(g10
g11
Ntp2556
Rp2557
(dp2558
g15
I462
sg16
g164
sbag9
(g10
g11
Ntp2559
Rp2560
(dp2561
g15
I465
sg16
g164
sbasg202
(lp2562
g9
(g10
g11
Ntp2563
Rp2564
(dp2565
g15
I639
sg16
g202
sbag9
(g10
g11
Ntp2566
Rp2567
(dp2568
g15
I593
sg16
g202
sbag9
(g10
g11
Ntp2569
Rp2570
(dp2571
g15
I609
sg16
g202
sbag9
(g10
g11
Ntp2572
Rp2573
(dp2574
g15
I588
sg16
g202
sbag9
(g10
g11
Ntp2575
Rp2576
(dp2577
g15
I604
sg16
g202
sbag9
(g10
g11
Ntp2578
Rp2579
(dp2580
g15
I582
sg16
g202
sbag9
(g10
g11
Ntp2581
Rp2582
(dp2583
g15
I600
sg16
g202
sbag9
(g10
g11
Ntp2584
Rp2585
(dp2586
g15
I588
sg16
g202
sbag9
(g10
g11
Ntp2587
Rp2588
(dp2589
g15
I591
sg16
g202
sbag9
(g10
g11
Ntp2590
Rp2591
(dp2592
g15
I595
sg16
g202
sbag9
(g10
g11
Ntp2593
Rp2594
(dp2595
g15
I588
sg16
g202
sbag9
(g10
g11
Ntp2596
Rp2597
(dp2598
g15
I595
sg16
g202
sbasg240
(lp2599
g9
(g10
g11
Ntp2600
Rp2601
(dp2602
g15
I728
sg16
g240
sbag9
(g10
g11
Ntp2603
Rp2604
(dp2605
g15
I783
sg16
g240
sbag9
(g10
g11
Ntp2606
Rp2607
(dp2608
g15
I743
sg16
g240
sbag9
(g10
g11
Ntp2609
Rp2610
(dp2611
g15
I768
sg16
g240
sbag9
(g10
g11
Ntp2612
Rp2613
(dp2614
g15
I743
sg16
g240
sbag9
(g10
g11
Ntp2615
Rp2616
(dp2617
g15
I798
sg16
g240
sbag9
(g10
g11
Ntp2618
Rp2619
(dp2620
g15
I768
sg16
g240
sbag9
(g10
g11
Ntp2621
Rp2622
(dp2623
g15
I771
sg16
g240
sbag9
(g10
g11
Ntp2624
Rp2625
(dp2626
g15
I768
sg16
g240
sbag9
(g10
g11
Ntp2627
Rp2628
(dp2629
g15
I777
sg16
g240
sbag9
(g10
g11
Ntp2630
Rp2631
(dp2632
g15
I774
sg16
g240
sbag9
(g10
g11
Ntp2633
Rp2634
(dp2635
g15
I768
sg16
g240
sbass(F-5.0
F0.0
tp2636
g0
(g1
tp2637
Rp2638
g7
(lp2639
g9
(g10
g11
Ntp2640
Rp2641
(dp2642
g15
I352
sg16
g7
sbag9
(g10
g11
Ntp2643
Rp2644
(dp2645
g15
I352
sg16
g7
sbag9
(g10
g11
Ntp2646
Rp2647
(dp2648
g15
I352
sg16
g7
sbag9
(g10
g11
Ntp2649
Rp2650
(dp2651
g15
I352
sg16
g7
sbag9
(g10
g11
Ntp2652
Rp2653
(dp2654
g15
I352
sg16
g7
sbag9
(g10
g11
Ntp2655
Rp2656
(dp2657
g15
I352
sg16
g7
sbag9
(g10
g11
Ntp2658
Rp2659
(dp2660
g15
I352
sg16
g7
sbag9
(g10
g11
Ntp2661
Rp2662
(dp2663
g15
I352
sg16
g7
sbag9
(g10
g11
Ntp2664
Rp2665
(dp2666
g15
I352
sg16
g7
sbag9
(g10
g11
Ntp2667
Rp2668
(dp2669
g15
I352
sg16
g7
sbag9
(g10
g11
Ntp2670
Rp2671
(dp2672
g15
I352
sg16
g7
sbag9
(g10
g11
Ntp2673
Rp2674
(dp2675
g15
I352
sg16
g7
sbasg50
(lp2676
g9
(g10
g11
Ntp2677
Rp2678
(dp2679
g15
I543
sg16
g50
sbag9
(g10
g11
Ntp2680
Rp2681
(dp2682
g15
I537
sg16
g50
sbag9
(g10
g11
Ntp2683
Rp2684
(dp2685
g15
I536
sg16
g50
sbag9
(g10
g11
Ntp2686
Rp2687
(dp2688
g15
I547
sg16
g50
sbag9
(g10
g11
Ntp2689
Rp2690
(dp2691
g15
I536
sg16
g50
sbag9
(g10
g11
Ntp2692
Rp2693
(dp2694
g15
I536
sg16
g50
sbag9
(g10
g11
Ntp2695
Rp2696
(dp2697
g15
I547
sg16
g50
sbag9
(g10
g11
Ntp2698
Rp2699
(dp2700
g15
I536
sg16
g50
sbag9
(g10
g11
Ntp2701
Rp2702
(dp2703
g15
I536
sg16
g50
sbag9
(g10
g11
Ntp2704
Rp2705
(dp2706
g15
I550
sg16
g50
sbag9
(g10
g11
Ntp2707
Rp2708
(dp2709
g15
I536
sg16
g50
sbag9
(g10
g11
Ntp2710
Rp2711
(dp2712
g15
I536
sg16
g50
sbasg88
(lp2713
g9
(g10
g11
Ntp2714
Rp2715
(dp2716
g15
I444
sg16
g88
sbag9
(g10
g11
Ntp2717
Rp2718
(dp2719
g15
I444
sg16
g88
sbag9
(g10
g11
Ntp2720
Rp2721
(dp2722
g15
I448
sg16
g88
sbag9
(g10
g11
Ntp2723
Rp2724
(dp2725
g15
I440
sg16
g88
sbag9
(g10
g11
Ntp2726
Rp2727
(dp2728
g15
I444
sg16
g88
sbag9
(g10
g11
Ntp2729
Rp2730
(dp2731
g15
I444
sg16
g88
sbag9
(g10
g11
Ntp2732
Rp2733
(dp2734
g15
I440
sg16
g88
sbag9
(g10
g11
Ntp2735
Rp2736
(dp2737
g15
I448
sg16
g88
sbag9
(g10
g11
Ntp2738
Rp2739
(dp2740
g15
I448
sg16
g88
sbag9
(g10
g11
Ntp2741
Rp2742
(dp2743
g15
I440
sg16
g88
sbag9
(g10
g11
Ntp2744
Rp2745
(dp2746
g15
I448
sg16
g88
sbag9
(g10
g11
Ntp2747
Rp2748
(dp2749
g15
I448
sg16
g88
sbasg126
(lp2750
g9
(g10
g11
Ntp2751
Rp2752
(dp2753
g15
I17297
sg16
g126
sbag9
(g10
g11
Ntp2754
Rp2755
(dp2756
g15
I26094
sg16
g126
sbag9
(g10
g11
Ntp2757
Rp2758
(dp2759
g15
I34890
sg16
g126
sbag9
(g10
g11
Ntp2760
Rp2761
(dp2762
g15
I58158
sg16
g126
sbag9
(g10
g11
Ntp2763
Rp2764
(dp2765
g15
I1418
sg16
g126
sbag9
(g10
g11
Ntp2766
Rp2767
(dp2768
g15
I10215
sg16
g126
sbag9
(g10
g11
Ntp2769
Rp2770
(dp2771
g15
I33480
sg16
g126
sbag9
(g10
g11
Ntp2772
Rp2773
(dp2774
g15
I42277
sg16
g126
sbag9
(g10
g11
Ntp2775
Rp2776
(dp2777
g15
I51073
sg16
g126
sbag9
(g10
g11
Ntp2778
Rp2779
(dp2780
g15
I8805
sg16
g126
sbag9
(g10
g11
Ntp2781
Rp2782
(dp2783
g15
I17601
sg16
g126
sbag9
(g10
g11
Ntp2784
Rp2785
(dp2786
g15
I26398
sg16
g126
sbasg164
(lp2787
g9
(g10
g11
Ntp2788
Rp2789
(dp2790
g15
I499
sg16
g164
sbag9
(g10
g11
Ntp2791
Rp2792
(dp2793
g15
I504
sg16
g164
sbag9
(g10
g11
Ntp2794
Rp2795
(dp2796
g15
I504
sg16
g164
sbag9
(g10
g11
Ntp2797
Rp2798
(dp2799
g15
I504
sg16
g164
sbag9
(g10
g11
Ntp2800
Rp2801
(dp2802
g15
I504
sg16
g164
sbag9
(g10
g11
Ntp2803
Rp2804
(dp2805
g15
I497
sg16
g164
sbag9
(g10
g11
Ntp2806
Rp2807
(dp2808
g15
I504
sg16
g164
sbag9
(g10
g11
Ntp2809
Rp2810
(dp2811
g15
I504
sg16
g164
sbag9
(g10
g11
Ntp2812
Rp2813
(dp2814
g15
I505
sg16
g164
sbag9
(g10
g11
Ntp2815
Rp2816
(dp2817
g15
I499
sg16
g164
sbag9
(g10
g11
Ntp2818
Rp2819
(dp2820
g15
I508
sg16
g164
sbag9
(g10
g11
Ntp2821
Rp2822
(dp2823
g15
I504
sg16
g164
sbasg202
(lp2824
g9
(g10
g11
Ntp2825
Rp2826
(dp2827
g15
I572
sg16
g202
sbag9
(g10
g11
Ntp2828
Rp2829
(dp2830
g15
I572
sg16
g202
sbag9
(g10
g11
Ntp2831
Rp2832
(dp2833
g15
I572
sg16
g202
sbag9
(g10
g11
Ntp2834
Rp2835
(dp2836
g15
I572
sg16
g202
sbag9
(g10
g11
Ntp2837
Rp2838
(dp2839
g15
I568
sg16
g202
sbag9
(g10
g11
Ntp2840
Rp2841
(dp2842
g15
I572
sg16
g202
sbag9
(g10
g11
Ntp2843
Rp2844
(dp2845
g15
I572
sg16
g202
sbag9
(g10
g11
Ntp2846
Rp2847
(dp2848
g15
I568
sg16
g202
sbag9
(g10
g11
Ntp2849
Rp2850
(dp2851
g15
I572
sg16
g202
sbag9
(g10
g11
Ntp2852
Rp2853
(dp2854
g15
I574
sg16
g202
sbag9
(g10
g11
Ntp2855
Rp2856
(dp2857
g15
I572
sg16
g202
sbag9
(g10
g11
Ntp2858
Rp2859
(dp2860
g15
I568
sg16
g202
sbasg240
(lp2861
g9
(g10
g11
Ntp2862
Rp2863
(dp2864
g15
I771
sg16
g240
sbag9
(g10
g11
Ntp2865
Rp2866
(dp2867
g15
I768
sg16
g240
sbag9
(g10
g11
Ntp2868
Rp2869
(dp2870
g15
I768
sg16
g240
sbag9
(g10
g11
Ntp2871
Rp2872
(dp2873
g15
I771
sg16
g240
sbag9
(g10
g11
Ntp2874
Rp2875
(dp2876
g15
I771
sg16
g240
sbag9
(g10
g11
Ntp2877
Rp2878
(dp2879
g15
I771
sg16
g240
sbag9
(g10
g11
Ntp2880
Rp2881
(dp2882
g15
I768
sg16
g240
sbag9
(g10
g11
Ntp2883
Rp2884
(dp2885
g15
I769
sg16
g240
sbag9
(g10
g11
Ntp2886
Rp2887
(dp2888
g15
I769
sg16
g240
sbag9
(g10
g11
Ntp2889
Rp2890
(dp2891
g15
I774
sg16
g240
sbag9
(g10
g11
Ntp2892
Rp2893
(dp2894
g15
I769
sg16
g240
sbag9
(g10
g11
Ntp2895
Rp2896
(dp2897
g15
I771
sg16
g240
sbass(F2.5
F-10.0
tp2898
g0
(g1
tp2899
Rp2900
g7
(lp2901
g9
(g10
g11
Ntp2902
Rp2903
(dp2904
g15
I339
sg16
g7
sbag9
(g10
g11
Ntp2905
Rp2906
(dp2907
g15
I352
sg16
g7
sbag9
(g10
g11
Ntp2908
Rp2909
(dp2910
g15
I366
sg16
g7
sbag9
(g10
g11
Ntp2911
Rp2912
(dp2913
g15
I353
sg16
g7
sbag9
(g10
g11
Ntp2914
Rp2915
(dp2916
g15
I366
sg16
g7
sbag9
(g10
g11
Ntp2917
Rp2918
(dp2919
g15
I348
sg16
g7
sbag9
(g10
g11
Ntp2920
Rp2921
(dp2922
g15
I358
sg16
g7
sbag9
(g10
g11
Ntp2923
Rp2924
(dp2925
g15
I352
sg16
g7
sbag9
(g10
g11
Ntp2926
Rp2927
(dp2928
g15
I348
sg16
g7
sbag9
(g10
g11
Ntp2929
Rp2930
(dp2931
g15
I352
sg16
g7
sbag9
(g10
g11
Ntp2932
Rp2933
(dp2934
g15
I353
sg16
g7
sbag9
(g10
g11
Ntp2935
Rp2936
(dp2937
g15
I353
sg16
g7
sbasg50
(lp2938
g9
(g10
g11
Ntp2939
Rp2940
(dp2941
g15
I536
sg16
g50
sbag9
(g10
g11
Ntp2942
Rp2943
(dp2944
g15
I536
sg16
g50
sbag9
(g10
g11
Ntp2945
Rp2946
(dp2947
g15
I547
sg16
g50
sbag9
(g10
g11
Ntp2948
Rp2949
(dp2950
g15
I536
sg16
g50
sbag9
(g10
g11
Ntp2951
Rp2952
(dp2953
g15
I536
sg16
g50
sbag9
(g10
g11
Ntp2954
Rp2955
(dp2956
g15
I547
sg16
g50
sbag9
(g10
g11
Ntp2957
Rp2958
(dp2959
g15
I536
sg16
g50
sbag9
(g10
g11
Ntp2960
Rp2961
(dp2962
g15
I536
sg16
g50
sbag9
(g10
g11
Ntp2963
Rp2964
(dp2965
g15
I543
sg16
g50
sbag9
(g10
g11
Ntp2966
Rp2967
(dp2968
g15
I536
sg16
g50
sbag9
(g10
g11
Ntp2969
Rp2970
(dp2971
g15
I542
sg16
g50
sbag9
(g10
g11
Ntp2972
Rp2973
(dp2974
g15
I540
sg16
g50
sbasg88
(lp2975
g9
(g10
g11
Ntp2976
Rp2977
(dp2978
g15
I448
sg16
g88
sbag9
(g10
g11
Ntp2979
Rp2980
(dp2981
g15
I422
sg16
g88
sbag9
(g10
g11
Ntp2982
Rp2983
(dp2984
g15
I457
sg16
g88
sbag9
(g10
g11
Ntp2985
Rp2986
(dp2987
g15
I448
sg16
g88
sbag9
(g10
g11
Ntp2988
Rp2989
(dp2990
g15
I440
sg16
g88
sbag9
(g10
g11
Ntp2991
Rp2992
(dp2993
g15
I451
sg16
g88
sbag9
(g10
g11
Ntp2994
Rp2995
(dp2996
g15
I448
sg16
g88
sbag9
(g10
g11
Ntp2997
Rp2998
(dp2999
g15
I444
sg16
g88
sbag9
(g10
g11
Ntp3000
Rp3001
(dp3002
g15
I448
sg16
g88
sbag9
(g10
g11
Ntp3003
Rp3004
(dp3005
g15
I444
sg16
g88
sbag9
(g10
g11
Ntp3006
Rp3007
(dp3008
g15
I448
sg16
g88
sbag9
(g10
g11
Ntp3009
Rp3010
(dp3011
g15
I440
sg16
g88
sbasg126
(lp3012
g9
(g10
g11
Ntp3013
Rp3014
(dp3015
g15
I19375
sg16
g126
sbag9
(g10
g11
Ntp3016
Rp3017
(dp3018
g15
I28172
sg16
g126
sbag9
(g10
g11
Ntp3019
Rp3020
(dp3021
g15
I36968
sg16
g126
sbag9
(g10
g11
Ntp3022
Rp3023
(dp3024
g15
I60236
sg16
g126
sbag9
(g10
g11
Ntp3025
Rp3026
(dp3027
g15
I3496
sg16
g126
sbag9
(g10
g11
Ntp3028
Rp3029
(dp3030
g15
I12293
sg16
g126
sbag9
(g10
g11
Ntp3031
Rp3032
(dp3033
g15
I35558
sg16
g126
sbag9
(g10
g11
Ntp3034
Rp3035
(dp3036
g15
I44355
sg16
g126
sbag9
(g10
g11
Ntp3037
Rp3038
(dp3039
g15
I53151
sg16
g126
sbag9
(g10
g11
Ntp3040
Rp3041
(dp3042
g15
I10883
sg16
g126
sbag9
(g10
g11
Ntp3043
Rp3044
(dp3045
g15
I19679
sg16
g126
sbag9
(g10
g11
Ntp3046
Rp3047
(dp3048
g15
I28476
sg16
g126
sbasg164
(lp3049
g9
(g10
g11
Ntp3050
Rp3051
(dp3052
g15
I476
sg16
g164
sbag9
(g10
g11
Ntp3053
Rp3054
(dp3055
g15
I486
sg16
g164
sbag9
(g10
g11
Ntp3056
Rp3057
(dp3058
g15
I451
sg16
g164
sbag9
(g10
g11
Ntp3059
Rp3060
(dp3061
g15
I496
sg16
g164
sbag9
(g10
g11
Ntp3062
Rp3063
(dp3064
g15
I472
sg16
g164
sbag9
(g10
g11
Ntp3065
Rp3066
(dp3067
g15
I463
sg16
g164
sbag9
(g10
g11
Ntp3068
Rp3069
(dp3070
g15
I472
sg16
g164
sbag9
(g10
g11
Ntp3071
Rp3072
(dp3073
g15
I462
sg16
g164
sbag9
(g10
g11
Ntp3074
Rp3075
(dp3076
g15
I476
sg16
g164
sbag9
(g10
g11
Ntp3077
Rp3078
(dp3079
g15
I472
sg16
g164
sbag9
(g10
g11
Ntp3080
Rp3081
(dp3082
g15
I472
sg16
g164
sbag9
(g10
g11
Ntp3083
Rp3084
(dp3085
g15
I472
sg16
g164
sbasg202
(lp3086
g9
(g10
g11
Ntp3087
Rp3088
(dp3089
g15
I515
sg16
g202
sbag9
(g10
g11
Ntp3090
Rp3091
(dp3092
g15
I551
sg16
g202
sbag9
(g10
g11
Ntp3093
Rp3094
(dp3095
g15
I492
sg16
g202
sbag9
(g10
g11
Ntp3096
Rp3097
(dp3098
g15
I558
sg16
g202
sbag9
(g10
g11
Ntp3099
Rp3100
(dp3101
g15
I561
sg16
g202
sbag9
(g10
g11
Ntp3102
Rp3103
(dp3104
g15
I527
sg16
g202
sbag9
(g10
g11
Ntp3105
Rp3106
(dp3107
g15
I553
sg16
g202
sbag9
(g10
g11
Ntp3108
Rp3109
(dp3110
g15
I560
sg16
g202
sbag9
(g10
g11
Ntp3111
Rp3112
(dp3113
g15
I540
sg16
g202
sbag9
(g10
g11
Ntp3114
Rp3115
(dp3116
g15
I551
sg16
g202
sbag9
(g10
g11
Ntp3117
Rp3118
(dp3119
g15
I550
sg16
g202
sbag9
(g10
g11
Ntp3120
Rp3121
(dp3122
g15
I551
sg16
g202
sbasg240
(lp3123
g9
(g10
g11
Ntp3124
Rp3125
(dp3126
g15
I860
sg16
g240
sbag9
(g10
g11
Ntp3127
Rp3128
(dp3129
g15
I704
sg16
g240
sbag9
(g10
g11
Ntp3130
Rp3131
(dp3132
g15
I775
sg16
g240
sbag9
(g10
g11
Ntp3133
Rp3134
(dp3135
g15
I752
sg16
g240
sbag9
(g10
g11
Ntp3136
Rp3137
(dp3138
g15
I739
sg16
g240
sbag9
(g10
g11
Ntp3139
Rp3140
(dp3141
g15
I799
sg16
g240
sbag9
(g10
g11
Ntp3142
Rp3143
(dp3144
g15
I775
sg16
g240
sbag9
(g10
g11
Ntp3145
Rp3146
(dp3147
g15
I768
sg16
g240
sbag9
(g10
g11
Ntp3148
Rp3149
(dp3150
g15
I782
sg16
g240
sbag9
(g10
g11
Ntp3151
Rp3152
(dp3153
g15
I768
sg16
g240
sbag9
(g10
g11
Ntp3154
Rp3155
(dp3156
g15
I768
sg16
g240
sbag9
(g10
g11
Ntp3157
Rp3158
(dp3159
g15
I782
sg16
g240
sbass(F-2.5
F0.0
tp3160
g0
(g1
tp3161
Rp3162
g7
(lp3163
g9
(g10
g11
Ntp3164
Rp3165
(dp3166
g15
I352
sg16
g7
sbag9
(g10
g11
Ntp3167
Rp3168
(dp3169
g15
I352
sg16
g7
sbag9
(g10
g11
Ntp3170
Rp3171
(dp3172
g15
I352
sg16
g7
sbag9
(g10
g11
Ntp3173
Rp3174
(dp3175
g15
I352
sg16
g7
sbag9
(g10
g11
Ntp3176
Rp3177
(dp3178
g15
I352
sg16
g7
sbag9
(g10
g11
Ntp3179
Rp3180
(dp3181
g15
I352
sg16
g7
sbag9
(g10
g11
Ntp3182
Rp3183
(dp3184
g15
I352
sg16
g7
sbag9
(g10
g11
Ntp3185
Rp3186
(dp3187
g15
I352
sg16
g7
sbag9
(g10
g11
Ntp3188
Rp3189
(dp3190
g15
I352
sg16
g7
sbag9
(g10
g11
Ntp3191
Rp3192
(dp3193
g15
I352
sg16
g7
sbag9
(g10
g11
Ntp3194
Rp3195
(dp3196
g15
I352
sg16
g7
sbag9
(g10
g11
Ntp3197
Rp3198
(dp3199
g15
I352
sg16
g7
sbasg50
(lp3200
g9
(g10
g11
Ntp3201
Rp3202
(dp3203
g15
I536
sg16
g50
sbag9
(g10
g11
Ntp3204
Rp3205
(dp3206
g15
I536
sg16
g50
sbag9
(g10
g11
Ntp3207
Rp3208
(dp3209
g15
I543
sg16
g50
sbag9
(g10
g11
Ntp3210
Rp3211
(dp3212
g15
I536
sg16
g50
sbag9
(g10
g11
Ntp3213
Rp3214
(dp3215
g15
I536
sg16
g50
sbag9
(g10
g11
Ntp3216
Rp3217
(dp3218
g15
I547
sg16
g50
sbag9
(g10
g11
Ntp3219
Rp3220
(dp3221
g15
I536
sg16
g50
sbag9
(g10
g11
Ntp3222
Rp3223
(dp3224
g15
I536
sg16
g50
sbag9
(g10
g11
Ntp3225
Rp3226
(dp3227
g15
I550
sg16
g50
sbag9
(g10
g11
Ntp3228
Rp3229
(dp3230
g15
I536
sg16
g50
sbag9
(g10
g11
Ntp3231
Rp3232
(dp3233
g15
I536
sg16
g50
sbag9
(g10
g11
Ntp3234
Rp3235
(dp3236
g15
I547
sg16
g50
sbasg88
(lp3237
g9
(g10
g11
Ntp3238
Rp3239
(dp3240
g15
I448
sg16
g88
sbag9
(g10
g11
Ntp3241
Rp3242
(dp3243
g15
I444
sg16
g88
sbag9
(g10
g11
Ntp3244
Rp3245
(dp3246
g15
I444
sg16
g88
sbag9
(g10
g11
Ntp3247
Rp3248
(dp3249
g15
I444
sg16
g88
sbag9
(g10
g11
Ntp3250
Rp3251
(dp3252
g15
I448
sg16
g88
sbag9
(g10
g11
Ntp3253
Rp3254
(dp3255
g15
I440
sg16
g88
sbag9
(g10
g11
Ntp3256
Rp3257
(dp3258
g15
I448
sg16
g88
sbag9
(g10
g11
Ntp3259
Rp3260
(dp3261
g15
I448
sg16
g88
sbag9
(g10
g11
Ntp3262
Rp3263
(dp3264
g15
I440
sg16
g88
sbag9
(g10
g11
Ntp3265
Rp3266
(dp3267
g15
I448
sg16
g88
sbag9
(g10
g11
Ntp3268
Rp3269
(dp3270
g15
I448
sg16
g88
sbag9
(g10
g11
Ntp3271
Rp3272
(dp3273
g15
I440
sg16
g88
sbasg126
(lp3274
g9
(g10
g11
Ntp3275
Rp3276
(dp3277
g15
I60105
sg16
g126
sbag9
(g10
g11
Ntp3278
Rp3279
(dp3280
g15
I3365
sg16
g126
sbag9
(g10
g11
Ntp3281
Rp3282
(dp3283
g15
I12162
sg16
g126
sbag9
(g10
g11
Ntp3284
Rp3285
(dp3286
g15
I35427
sg16
g126
sbag9
(g10
g11
Ntp3287
Rp3288
(dp3289
g15
I44224
sg16
g126
sbag9
(g10
g11
Ntp3290
Rp3291
(dp3292
g15
I53020
sg16
g126
sbag9
(g10
g11
Ntp3293
Rp3294
(dp3295
g15
I10752
sg16
g126
sbag9
(g10
g11
Ntp3296
Rp3297
(dp3298
g15
I19548
sg16
g126
sbag9
(g10
g11
Ntp3299
Rp3300
(dp3301
g15
I28345
sg16
g126
sbag9
(g10
g11
Ntp3302
Rp3303
(dp3304
g15
I51610
sg16
g126
sbag9
(g10
g11
Ntp3305
Rp3306
(dp3307
g15
I60407
sg16
g126
sbag9
(g10
g11
Ntp3308
Rp3309
(dp3310
g15
I3667
sg16
g126
sbasg164
(lp3311
g9
(g10
g11
Ntp3312
Rp3313
(dp3314
g15
I494
sg16
g164
sbag9
(g10
g11
Ntp3315
Rp3316
(dp3317
g15
I494
sg16
g164
sbag9
(g10
g11
Ntp3318
Rp3319
(dp3320
g15
I496
sg16
g164
sbag9
(g10
g11
Ntp3321
Rp3322
(dp3323
g15
I487
sg16
g164
sbag9
(g10
g11
Ntp3324
Rp3325
(dp3326
g15
I496
sg16
g164
sbag9
(g10
g11
Ntp3327
Rp3328
(dp3329
g15
I492
sg16
g164
sbag9
(g10
g11
Ntp3330
Rp3331
(dp3332
g15
I494
sg16
g164
sbag9
(g10
g11
Ntp3333
Rp3334
(dp3335
g15
I492
sg16
g164
sbag9
(g10
g11
Ntp3336
Rp3337
(dp3338
g15
I492
sg16
g164
sbag9
(g10
g11
Ntp3339
Rp3340
(dp3341
g15
I494
sg16
g164
sbag9
(g10
g11
Ntp3342
Rp3343
(dp3344
g15
I496
sg16
g164
sbag9
(g10
g11
Ntp3345
Rp3346
(dp3347
g15
I496
sg16
g164
sbasg202
(lp3348
g9
(g10
g11
Ntp3349
Rp3350
(dp3351
g15
I617
sg16
g202
sbag9
(g10
g11
Ntp3352
Rp3353
(dp3354
g15
I614
sg16
g202
sbag9
(g10
g11
Ntp3355
Rp3356
(dp3357
g15
I622
sg16
g202
sbag9
(g10
g11
Ntp3358
Rp3359
(dp3360
g15
I615
sg16
g202
sbag9
(g10
g11
Ntp3361
Rp3362
(dp3363
g15
I620
sg16
g202
sbag9
(g10
g11
Ntp3364
Rp3365
(dp3366
g15
I611
sg16
g202
sbag9
(g10
g11
Ntp3367
Rp3368
(dp3369
g15
I617
sg16
g202
sbag9
(g10
g11
Ntp3370
Rp3371
(dp3372
g15
I615
sg16
g202
sbag9
(g10
g11
Ntp3373
Rp3374
(dp3375
g15
I617
sg16
g202
sbag9
(g10
g11
Ntp3376
Rp3377
(dp3378
g15
I620
sg16
g202
sbag9
(g10
g11
Ntp3379
Rp3380
(dp3381
g15
I620
sg16
g202
sbag9
(g10
g11
Ntp3382
Rp3383
(dp3384
g15
I620
sg16
g202
sbasg240
(lp3385
g9
(g10
g11
Ntp3386
Rp3387
(dp3388
g15
I769
sg16
g240
sbag9
(g10
g11
Ntp3389
Rp3390
(dp3391
g15
I775
sg16
g240
sbag9
(g10
g11
Ntp3392
Rp3393
(dp3394
g15
I772
sg16
g240
sbag9
(g10
g11
Ntp3395
Rp3396
(dp3397
g15
I771
sg16
g240
sbag9
(g10
g11
Ntp3398
Rp3399
(dp3400
g15
I771
sg16
g240
sbag9
(g10
g11
Ntp3401
Rp3402
(dp3403
g15
I771
sg16
g240
sbag9
(g10
g11
Ntp3404
Rp3405
(dp3406
g15
I775
sg16
g240
sbag9
(g10
g11
Ntp3407
Rp3408
(dp3409
g15
I771
sg16
g240
sbag9
(g10
g11
Ntp3410
Rp3411
(dp3412
g15
I771
sg16
g240
sbag9
(g10
g11
Ntp3413
Rp3414
(dp3415
g15
I775
sg16
g240
sbag9
(g10
g11
Ntp3416
Rp3417
(dp3418
g15
I771
sg16
g240
sbag9
(g10
g11
Ntp3419
Rp3420
(dp3421
g15
I771
sg16
g240
sbass(F0.0
F-10.0
tp3422
g0
(g1
tp3423
Rp3424
g7
(lp3425
g9
(g10
g11
Ntp3426
Rp3427
(dp3428
g15
I352
sg16
g7
sbag9
(g10
g11
Ntp3429
Rp3430
(dp3431
g15
I352
sg16
g7
sbag9
(g10
g11
Ntp3432
Rp3433
(dp3434
g15
I352
sg16
g7
sbag9
(g10
g11
Ntp3435
Rp3436
(dp3437
g15
I352
sg16
g7
sbag9
(g10
g11
Ntp3438
Rp3439
(dp3440
g15
I352
sg16
g7
sbag9
(g10
g11
Ntp3441
Rp3442
(dp3443
g15
I352
sg16
g7
sbag9
(g10
g11
Ntp3444
Rp3445
(dp3446
g15
I352
sg16
g7
sbag9
(g10
g11
Ntp3447
Rp3448
(dp3449
g15
I352
sg16
g7
sbag9
(g10
g11
Ntp3450
Rp3451
(dp3452
g15
I352
sg16
g7
sbag9
(g10
g11
Ntp3453
Rp3454
(dp3455
g15
I352
sg16
g7
sbag9
(g10
g11
Ntp3456
Rp3457
(dp3458
g15
I352
sg16
g7
sbag9
(g10
g11
Ntp3459
Rp3460
(dp3461
g15
I352
sg16
g7
sbasg50
(lp3462
g9
(g10
g11
Ntp3463
Rp3464
(dp3465
g15
I536
sg16
g50
sbag9
(g10
g11
Ntp3466
Rp3467
(dp3468
g15
I536
sg16
g50
sbag9
(g10
g11
Ntp3469
Rp3470
(dp3471
g15
I547
sg16
g50
sbag9
(g10
g11
Ntp3472
Rp3473
(dp3474
g15
I536
sg16
g50
sbag9
(g10
g11
Ntp3475
Rp3476
(dp3477
g15
I536
sg16
g50
sbag9
(g10
g11
Ntp3478
Rp3479
(dp3480
g15
I550
sg16
g50
sbag9
(g10
g11
Ntp3481
Rp3482
(dp3483
g15
I536
sg16
g50
sbag9
(g10
g11
Ntp3484
Rp3485
(dp3486
g15
I536
sg16
g50
sbag9
(g10
g11
Ntp3487
Rp3488
(dp3489
g15
I543
sg16
g50
sbag9
(g10
g11
Ntp3490
Rp3491
(dp3492
g15
I536
sg16
g50
sbag9
(g10
g11
Ntp3493
Rp3494
(dp3495
g15
I543
sg16
g50
sbag9
(g10
g11
Ntp3496
Rp3497
(dp3498
g15
I540
sg16
g50
sbasg88
(lp3499
g9
(g10
g11
Ntp3500
Rp3501
(dp3502
g15
I444
sg16
g88
sbag9
(g10
g11
Ntp3503
Rp3504
(dp3505
g15
I448
sg16
g88
sbag9
(g10
g11
Ntp3506
Rp3507
(dp3508
g15
I441
sg16
g88
sbag9
(g10
g11
Ntp3509
Rp3510
(dp3511
g15
I448
sg16
g88
sbag9
(g10
g11
Ntp3512
Rp3513
(dp3514
g15
I448
sg16
g88
sbag9
(g10
g11
Ntp3515
Rp3516
(dp3517
g15
I440
sg16
g88
sbag9
(g10
g11
Ntp3518
Rp3519
(dp3520
g15
I448
sg16
g88
sbag9
(g10
g11
Ntp3521
Rp3522
(dp3523
g15
I444
sg16
g88
sbag9
(g10
g11
Ntp3524
Rp3525
(dp3526
g15
I441
sg16
g88
sbag9
(g10
g11
Ntp3527
Rp3528
(dp3529
g15
I444
sg16
g88
sbag9
(g10
g11
Ntp3530
Rp3531
(dp3532
g15
I444
sg16
g88
sbag9
(g10
g11
Ntp3533
Rp3534
(dp3535
g15
I444
sg16
g88
sbasg126
(lp3536
g9
(g10
g11
Ntp3537
Rp3538
(dp3539
g15
I26710
sg16
g126
sbag9
(g10
g11
Ntp3540
Rp3541
(dp3542
g15
I35506
sg16
g126
sbag9
(g10
g11
Ntp3543
Rp3544
(dp3545
g15
I44303
sg16
g126
sbag9
(g10
g11
Ntp3546
Rp3547
(dp3548
g15
I2032
sg16
g126
sbag9
(g10
g11
Ntp3549
Rp3550
(dp3551
g15
I10829
sg16
g126
sbag9
(g10
g11
Ntp3552
Rp3553
(dp3554
g15
I19625
sg16
g126
sbag9
(g10
g11
Ntp3555
Rp3556
(dp3557
g15
I42893
sg16
g126
sbag9
(g10
g11
Ntp3558
Rp3559
(dp3560
g15
I51689
sg16
g126
sbag9
(g10
g11
Ntp3561
Rp3562
(dp3563
g15
I60486
sg16
g126
sbag9
(g10
g11
Ntp3564
Rp3565
(dp3566
g15
I18215
sg16
g126
sbag9
(g10
g11
Ntp3567
Rp3568
(dp3569
g15
I27012
sg16
g126
sbag9
(g10
g11
Ntp3570
Rp3571
(dp3572
g15
I35808
sg16
g126
sbasg164
(lp3573
g9
(g10
g11
Ntp3574
Rp3575
(dp3576
g15
I496
sg16
g164
sbag9
(g10
g11
Ntp3577
Rp3578
(dp3579
g15
I492
sg16
g164
sbag9
(g10
g11
Ntp3580
Rp3581
(dp3582
g15
I494
sg16
g164
sbag9
(g10
g11
Ntp3583
Rp3584
(dp3585
g15
I494
sg16
g164
sbag9
(g10
g11
Ntp3586
Rp3587
(dp3588
g15
I496
sg16
g164
sbag9
(g10
g11
Ntp3589
Rp3590
(dp3591
g15
I496
sg16
g164
sbag9
(g10
g11
Ntp3592
Rp3593
(dp3594
g15
I492
sg16
g164
sbag9
(g10
g11
Ntp3595
Rp3596
(dp3597
g15
I496
sg16
g164
sbag9
(g10
g11
Ntp3598
Rp3599
(dp3600
g15
I492
sg16
g164
sbag9
(g10
g11
Ntp3601
Rp3602
(dp3603
g15
I497
sg16
g164
sbag9
(g10
g11
Ntp3604
Rp3605
(dp3606
g15
I496
sg16
g164
sbag9
(g10
g11
Ntp3607
Rp3608
(dp3609
g15
I494
sg16
g164
sbasg202
(lp3610
g9
(g10
g11
Ntp3611
Rp3612
(dp3613
g15
I551
sg16
g202
sbag9
(g10
g11
Ntp3614
Rp3615
(dp3616
g15
I547
sg16
g202
sbag9
(g10
g11
Ntp3617
Rp3618
(dp3619
g15
I550
sg16
g202
sbag9
(g10
g11
Ntp3620
Rp3621
(dp3622
g15
I547
sg16
g202
sbag9
(g10
g11
Ntp3623
Rp3624
(dp3625
g15
I547
sg16
g202
sbag9
(g10
g11
Ntp3626
Rp3627
(dp3628
g15
I547
sg16
g202
sbag9
(g10
g11
Ntp3629
Rp3630
(dp3631
g15
I551
sg16
g202
sbag9
(g10
g11
Ntp3632
Rp3633
(dp3634
g15
I551
sg16
g202
sbag9
(g10
g11
Ntp3635
Rp3636
(dp3637
g15
I551
sg16
g202
sbag9
(g10
g11
Ntp3638
Rp3639
(dp3640
g15
I550
sg16
g202
sbag9
(g10
g11
Ntp3641
Rp3642
(dp3643
g15
I547
sg16
g202
sbag9
(g10
g11
Ntp3644
Rp3645
(dp3646
g15
I547
sg16
g202
sbasg240
(lp3647
g9
(g10
g11
Ntp3648
Rp3649
(dp3650
g15
I768
sg16
g240
sbag9
(g10
g11
Ntp3651
Rp3652
(dp3653
g15
I768
sg16
g240
sbag9
(g10
g11
Ntp3654
Rp3655
(dp3656
g15
I768
sg16
g240
sbag9
(g10
g11
Ntp3657
Rp3658
(dp3659
g15
I769
sg16
g240
sbag9
(g10
g11
Ntp3660
Rp3661
(dp3662
g15
I771
sg16
g240
sbag9
(g10
g11
Ntp3663
Rp3664
(dp3665
g15
I768
sg16
g240
sbag9
(g10
g11
Ntp3666
Rp3667
(dp3668
g15
I768
sg16
g240
sbag9
(g10
g11
Ntp3669
Rp3670
(dp3671
g15
I771
sg16
g240
sbag9
(g10
g11
Ntp3672
Rp3673
(dp3674
g15
I768
sg16
g240
sbag9
(g10
g11
Ntp3675
Rp3676
(dp3677
g15
I768
sg16
g240
sbag9
(g10
g11
Ntp3678
Rp3679
(dp3680
g15
I768
sg16
g240
sbag9
(g10
g11
Ntp3681
Rp3682
(dp3683
g15
I768
sg16
g240
sbass(F0.0
F-5.0
tp3684
g0
(g1
tp3685
Rp3686
g7
(lp3687
g9
(g10
g11
Ntp3688
Rp3689
(dp3690
g15
I352
sg16
g7
sbag9
(g10
g11
Ntp3691
Rp3692
(dp3693
g15
I352
sg16
g7
sbag9
(g10
g11
Ntp3694
Rp3695
(dp3696
g15
I352
sg16
g7
sbag9
(g10
g11
Ntp3697
Rp3698
(dp3699
g15
I352
sg16
g7
sbag9
(g10
g11
Ntp3700
Rp3701
(dp3702
g15
I353
sg16
g7
sbag9
(g10
g11
Ntp3703
Rp3704
(dp3705
g15
I352
sg16
g7
sbag9
(g10
g11
Ntp3706
Rp3707
(dp3708
g15
I352
sg16
g7
sbag9
(g10
g11
Ntp3709
Rp3710
(dp3711
g15
I352
sg16
g7
sbag9
(g10
g11
Ntp3712
Rp3713
(dp3714
g15
I352
sg16
g7
sbag9
(g10
g11
Ntp3715
Rp3716
(dp3717
g15
I352
sg16
g7
sbag9
(g10
g11
Ntp3718
Rp3719
(dp3720
g15
I352
sg16
g7
sbag9
(g10
g11
Ntp3721
Rp3722
(dp3723
g15
I352
sg16
g7
sbasg50
(lp3724
g9
(g10
g11
Ntp3725
Rp3726
(dp3727
g15
I536
sg16
g50
sbag9
(g10
g11
Ntp3728
Rp3729
(dp3730
g15
I536
sg16
g50
sbag9
(g10
g11
Ntp3731
Rp3732
(dp3733
g15
I536
sg16
g50
sbag9
(g10
g11
Ntp3734
Rp3735
(dp3736
g15
I536
sg16
g50
sbag9
(g10
g11
Ntp3737
Rp3738
(dp3739
g15
I536
sg16
g50
sbag9
(g10
g11
Ntp3740
Rp3741
(dp3742
g15
I536
sg16
g50
sbag9
(g10
g11
Ntp3743
Rp3744
(dp3745
g15
I536
sg16
g50
sbag9
(g10
g11
Ntp3746
Rp3747
(dp3748
g15
I536
sg16
g50
sbag9
(g10
g11
Ntp3749
Rp3750
(dp3751
g15
I536
sg16
g50
sbag9
(g10
g11
Ntp3752
Rp3753
(dp3754
g15
I536
sg16
g50
sbag9
(g10
g11
Ntp3755
Rp3756
(dp3757
g15
I536
sg16
g50
sbag9
(g10
g11
Ntp3758
Rp3759
(dp3760
g15
I540
sg16
g50
sbasg88
(lp3761
g9
(g10
g11
Ntp3762
Rp3763
(dp3764
g15
I448
sg16
g88
sbag9
(g10
g11
Ntp3765
Rp3766
(dp3767
g15
I448
sg16
g88
sbag9
(g10
g11
Ntp3768
Rp3769
(dp3770
g15
I444
sg16
g88
sbag9
(g10
g11
Ntp3771
Rp3772
(dp3773
g15
I448
sg16
g88
sbag9
(g10
g11
Ntp3774
Rp3775
(dp3776
g15
I448
sg16
g88
sbag9
(g10
g11
Ntp3777
Rp3778
(dp3779
g15
I448
sg16
g88
sbag9
(g10
g11
Ntp3780
Rp3781
(dp3782
g15
I448
sg16
g88
sbag9
(g10
g11
Ntp3783
Rp3784
(dp3785
g15
I444
sg16
g88
sbag9
(g10
g11
Ntp3786
Rp3787
(dp3788
g15
I448
sg16
g88
sbag9
(g10
g11
Ntp3789
Rp3790
(dp3791
g15
I444
sg16
g88
sbag9
(g10
g11
Ntp3792
Rp3793
(dp3794
g15
I448
sg16
g88
sbag9
(g10
g11
Ntp3795
Rp3796
(dp3797
g15
I448
sg16
g88
sbasg126
(lp3798
g9
(g10
g11
Ntp3799
Rp3800
(dp3801
g15
I47260
sg16
g126
sbag9
(g10
g11
Ntp3802
Rp3803
(dp3804
g15
I56056
sg16
g126
sbag9
(g10
g11
Ntp3805
Rp3806
(dp3807
g15
I64853
sg16
g126
sbag9
(g10
g11
Ntp3808
Rp3809
(dp3810
g15
I22582
sg16
g126
sbag9
(g10
g11
Ntp3811
Rp3812
(dp3813
g15
I31379
sg16
g126
sbag9
(g10
g11
Ntp3814
Rp3815
(dp3816
g15
I40175
sg16
g126
sbag9
(g10
g11
Ntp3817
Rp3818
(dp3819
g15
I63443
sg16
g126
sbag9
(g10
g11
Ntp3820
Rp3821
(dp3822
g15
I6703
sg16
g126
sbag9
(g10
g11
Ntp3823
Rp3824
(dp3825
g15
I15500
sg16
g126
sbag9
(g10
g11
Ntp3826
Rp3827
(dp3828
g15
I38765
sg16
g126
sbag9
(g10
g11
Ntp3829
Rp3830
(dp3831
g15
I47562
sg16
g126
sbag9
(g10
g11
Ntp3832
Rp3833
(dp3834
g15
I56358
sg16
g126
sbasg164
(lp3835
g9
(g10
g11
Ntp3836
Rp3837
(dp3838
g15
I483
sg16
g164
sbag9
(g10
g11
Ntp3839
Rp3840
(dp3841
g15
I487
sg16
g164
sbag9
(g10
g11
Ntp3842
Rp3843
(dp3844
g15
I483
sg16
g164
sbag9
(g10
g11
Ntp3845
Rp3846
(dp3847
g15
I481
sg16
g164
sbag9
(g10
g11
Ntp3848
Rp3849
(dp3850
g15
I480
sg16
g164
sbag9
(g10
g11
Ntp3851
Rp3852
(dp3853
g15
I483
sg16
g164
sbag9
(g10
g11
Ntp3854
Rp3855
(dp3856
g15
I481
sg16
g164
sbag9
(g10
g11
Ntp3857
Rp3858
(dp3859
g15
I481
sg16
g164
sbag9
(g10
g11
Ntp3860
Rp3861
(dp3862
g15
I480
sg16
g164
sbag9
(g10
g11
Ntp3863
Rp3864
(dp3865
g15
I480
sg16
g164
sbag9
(g10
g11
Ntp3866
Rp3867
(dp3868
g15
I480
sg16
g164
sbag9
(g10
g11
Ntp3869
Rp3870
(dp3871
g15
I480
sg16
g164
sbasg202
(lp3872
g9
(g10
g11
Ntp3873
Rp3874
(dp3875
g15
I551
sg16
g202
sbag9
(g10
g11
Ntp3876
Rp3877
(dp3878
g15
I547
sg16
g202
sbag9
(g10
g11
Ntp3879
Rp3880
(dp3881
g15
I551
sg16
g202
sbag9
(g10
g11
Ntp3882
Rp3883
(dp3884
g15
I551
sg16
g202
sbag9
(g10
g11
Ntp3885
Rp3886
(dp3887
g15
I551
sg16
g202
sbag9
(g10
g11
Ntp3888
Rp3889
(dp3890
g15
I547
sg16
g202
sbag9
(g10
g11
Ntp3891
Rp3892
(dp3893
g15
I547
sg16
g202
sbag9
(g10
g11
Ntp3894
Rp3895
(dp3896
g15
I543
sg16
g202
sbag9
(g10
g11
Ntp3897
Rp3898
(dp3899
g15
I551
sg16
g202
sbag9
(g10
g11
Ntp3900
Rp3901
(dp3902
g15
I551
sg16
g202
sbag9
(g10
g11
Ntp3903
Rp3904
(dp3905
g15
I550
sg16
g202
sbag9
(g10
g11
Ntp3906
Rp3907
(dp3908
g15
I547
sg16
g202
sbasg240
(lp3909
g9
(g10
g11
Ntp3910
Rp3911
(dp3912
g15
I768
sg16
g240
sbag9
(g10
g11
Ntp3913
Rp3914
(dp3915
g15
I771
sg16
g240
sbag9
(g10
g11
Ntp3916
Rp3917
(dp3918
g15
I768
sg16
g240
sbag9
(g10
g11
Ntp3919
Rp3920
(dp3921
g15
I768
sg16
g240
sbag9
(g10
g11
Ntp3922
Rp3923
(dp3924
g15
I768
sg16
g240
sbag9
(g10
g11
Ntp3925
Rp3926
(dp3927
g15
I768
sg16
g240
sbag9
(g10
g11
Ntp3928
Rp3929
(dp3930
g15
I768
sg16
g240
sbag9
(g10
g11
Ntp3931
Rp3932
(dp3933
g15
I768
sg16
g240
sbag9
(g10
g11
Ntp3934
Rp3935
(dp3936
g15
I768
sg16
g240
sbag9
(g10
g11
Ntp3937
Rp3938
(dp3939
g15
I768
sg16
g240
sbag9
(g10
g11
Ntp3940
Rp3941
(dp3942
g15
I768
sg16
g240
sbag9
(g10
g11
Ntp3943
Rp3944
(dp3945
g15
I768
sg16
g240
sbass(F2.5
F-5.0
tp3946
g0
(g1
tp3947
Rp3948
g7
(lp3949
g9
(g10
g11
Ntp3950
Rp3951
(dp3952
g15
I384
sg16
g7
sbag9
(g10
g11
Ntp3953
Rp3954
(dp3955
g15
I327
sg16
g7
sbag9
(g10
g11
Ntp3956
Rp3957
(dp3958
g15
I344
sg16
g7
sbag9
(g10
g11
Ntp3959
Rp3960
(dp3961
g15
I359
sg16
g7
sbag9
(g10
g11
Ntp3962
Rp3963
(dp3964
g15
I348
sg16
g7
sbag9
(g10
g11
Ntp3965
Rp3966
(dp3967
g15
I348
sg16
g7
sbag9
(g10
g11
Ntp3968
Rp3969
(dp3970
g15
I352
sg16
g7
sbag9
(g10
g11
Ntp3971
Rp3972
(dp3973
g15
I368
sg16
g7
sbag9
(g10
g11
Ntp3974
Rp3975
(dp3976
g15
I348
sg16
g7
sbag9
(g10
g11
Ntp3977
Rp3978
(dp3979
g15
I364
sg16
g7
sbag9
(g10
g11
Ntp3980
Rp3981
(dp3982
g15
I352
sg16
g7
sbag9
(g10
g11
Ntp3983
Rp3984
(dp3985
g15
I352
sg16
g7
sbasg50
(lp3986
g9
(g10
g11
Ntp3987
Rp3988
(dp3989
g15
I536
sg16
g50
sbag9
(g10
g11
Ntp3990
Rp3991
(dp3992
g15
I536
sg16
g50
sbag9
(g10
g11
Ntp3993
Rp3994
(dp3995
g15
I550
sg16
g50
sbag9
(g10
g11
Ntp3996
Rp3997
(dp3998
g15
I536
sg16
g50
sbag9
(g10
g11
Ntp3999
Rp4000
(dp4001
g15
I536
sg16
g50
sbag9
(g10
g11
Ntp4002
Rp4003
(dp4004
g15
I543
sg16
g50
sbag9
(g10
g11
Ntp4005
Rp4006
(dp4007
g15
I536
sg16
g50
sbag9
(g10
g11
Ntp4008
Rp4009
(dp4010
g15
I540
sg16
g50
sbag9
(g10
g11
Ntp4011
Rp4012
(dp4013
g15
I540
sg16
g50
sbag9
(g10
g11
Ntp4014
Rp4015
(dp4016
g15
I536
sg16
g50
sbag9
(g10
g11
Ntp4017
Rp4018
(dp4019
g15
I543
sg16
g50
sbag9
(g10
g11
Ntp4020
Rp4021
(dp4022
g15
I537
sg16
g50
sbasg88
(lp4023
g9
(g10
g11
Ntp4024
Rp4025
(dp4026
g15
I440
sg16
g88
sbag9
(g10
g11
Ntp4027
Rp4028
(dp4029
g15
I412
sg16
g88
sbag9
(g10
g11
Ntp4030
Rp4031
(dp4032
g15
I432
sg16
g88
sbag9
(g10
g11
Ntp4033
Rp4034
(dp4035
g15
I444
sg16
g88
sbag9
(g10
g11
Ntp4036
Rp4037
(dp4038
g15
I435
sg16
g88
sbag9
(g10
g11
Ntp4039
Rp4040
(dp4041
g15
I451
sg16
g88
sbag9
(g10
g11
Ntp4042
Rp4043
(dp4044
g15
I440
sg16
g88
sbag9
(g10
g11
Ntp4045
Rp4046
(dp4047
g15
I440
sg16
g88
sbag9
(g10
g11
Ntp4048
Rp4049
(dp4050
g15
I449
sg16
g88
sbag9
(g10
g11
Ntp4051
Rp4052
(dp4053
g15
I440
sg16
g88
sbag9
(g10
g11
Ntp4054
Rp4055
(dp4056
g15
I448
sg16
g88
sbag9
(g10
g11
Ntp4057
Rp4058
(dp4059
g15
I448
sg16
g88
sbasg126
(lp4060
g9
(g10
g11
Ntp4061
Rp4062
(dp4063
g15
I21780
sg16
g126
sbag9
(g10
g11
Ntp4064
Rp4065
(dp4066
g15
I30576
sg16
g126
sbag9
(g10
g11
Ntp4067
Rp4068
(dp4069
g15
I39373
sg16
g126
sbag9
(g10
g11
Ntp4070
Rp4071
(dp4072
g15
I62638
sg16
g126
sbag9
(g10
g11
Ntp4073
Rp4074
(dp4075
g15
I5899
sg16
g126
sbag9
(g10
g11
Ntp4076
Rp4077
(dp4078
g15
I14695
sg16
g126
sbag9
(g10
g11
Ntp4079
Rp4080
(dp4081
g15
I37963
sg16
g126
sbag9
(g10
g11
Ntp4082
Rp4083
(dp4084
g15
I46759
sg16
g126
sbag9
(g10
g11
Ntp4085
Rp4086
(dp4087
g15
I55556
sg16
g126
sbag9
(g10
g11
Ntp4088
Rp4089
(dp4090
g15
I13285
sg16
g126
sbag9
(g10
g11
Ntp4091
Rp4092
(dp4093
g15
I22082
sg16
g126
sbag9
(g10
g11
Ntp4094
Rp4095
(dp4096
g15
I30878
sg16
g126
sbasg164
(lp4097
g9
(g10
g11
Ntp4098
Rp4099
(dp4100
g15
I504
sg16
g164
sbag9
(g10
g11
Ntp4101
Rp4102
(dp4103
g15
I463
sg16
g164
sbag9
(g10
g11
Ntp4104
Rp4105
(dp4106
g15
I483
sg16
g164
sbag9
(g10
g11
Ntp4107
Rp4108
(dp4109
g15
I472
sg16
g164
sbag9
(g10
g11
Ntp4110
Rp4111
(dp4112
g15
I467
sg16
g164
sbag9
(g10
g11
Ntp4113
Rp4114
(dp4115
g15
I472
sg16
g164
sbag9
(g10
g11
Ntp4116
Rp4117
(dp4118
g15
I480
sg16
g164
sbag9
(g10
g11
Ntp4119
Rp4120
(dp4121
g15
I467
sg16
g164
sbag9
(g10
g11
Ntp4122
Rp4123
(dp4124
g15
I454
sg16
g164
sbag9
(g10
g11
Ntp4125
Rp4126
(dp4127
g15
I478
sg16
g164
sbag9
(g10
g11
Ntp4128
Rp4129
(dp4130
g15
I463
sg16
g164
sbag9
(g10
g11
Ntp4131
Rp4132
(dp4133
g15
I467
sg16
g164
sbasg202
(lp4134
g9
(g10
g11
Ntp4135
Rp4136
(dp4137
g15
I504
sg16
g202
sbag9
(g10
g11
Ntp4138
Rp4139
(dp4140
g15
I568
sg16
g202
sbag9
(g10
g11
Ntp4141
Rp4142
(dp4143
g15
I553
sg16
g202
sbag9
(g10
g11
Ntp4144
Rp4145
(dp4146
g15
I572
sg16
g202
sbag9
(g10
g11
Ntp4147
Rp4148
(dp4149
g15
I583
sg16
g202
sbag9
(g10
g11
Ntp4150
Rp4151
(dp4152
g15
I560
sg16
g202
sbag9
(g10
g11
Ntp4153
Rp4154
(dp4155
g15
I575
sg16
g202
sbag9
(g10
g11
Ntp4156
Rp4157
(dp4158
g15
I568
sg16
g202
sbag9
(g10
g11
Ntp4159
Rp4160
(dp4161
g15
I547
sg16
g202
sbag9
(g10
g11
Ntp4162
Rp4163
(dp4164
g15
I582
sg16
g202
sbag9
(g10
g11
Ntp4165
Rp4166
(dp4167
g15
I563
sg16
g202
sbag9
(g10
g11
Ntp4168
Rp4169
(dp4170
g15
I563
sg16
g202
sbasg240
(lp4171
g9
(g10
g11
Ntp4172
Rp4173
(dp4174
g15
I864
sg16
g240
sbag9
(g10
g11
Ntp4175
Rp4176
(dp4177
g15
I787
sg16
g240
sbag9
(g10
g11
Ntp4178
Rp4179
(dp4180
g15
I721
sg16
g240
sbag9
(g10
g11
Ntp4181
Rp4182
(dp4183
g15
I824
sg16
g240
sbag9
(g10
g11
Ntp4184
Rp4185
(dp4186
g15
I760
sg16
g240
sbag9
(g10
g11
Ntp4187
Rp4188
(dp4189
g15
I774
sg16
g240
sbag9
(g10
g11
Ntp4190
Rp4191
(dp4192
g15
I768
sg16
g240
sbag9
(g10
g11
Ntp4193
Rp4194
(dp4195
g15
I752
sg16
g240
sbag9
(g10
g11
Ntp4196
Rp4197
(dp4198
g15
I817
sg16
g240
sbag9
(g10
g11
Ntp4199
Rp4200
(dp4201
g15
I755
sg16
g240
sbag9
(g10
g11
Ntp4202
Rp4203
(dp4204
g15
I775
sg16
g240
sbag9
(g10
g11
Ntp4205
Rp4206
(dp4207
g15
I783
sg16
g240
sbass(F2.5
F5.0
tp4208
g0
(g1
tp4209
Rp4210
g7
(lp4211
g9
(g10
g11
Ntp4212
Rp4213
(dp4214
g15
I344
sg16
g7
sbag9
(g10
g11
Ntp4215
Rp4216
(dp4217
g15
I359
sg16
g7
sbag9
(g10
g11
Ntp4218
Rp4219
(dp4220
g15
I352
sg16
g7
sbag9
(g10
g11
Ntp4221
Rp4222
(dp4223
g15
I344
sg16
g7
sbag9
(g10
g11
Ntp4224
Rp4225
(dp4226
g15
I344
sg16
g7
sbag9
(g10
g11
Ntp4227
Rp4228
(dp4229
g15
I355
sg16
g7
sbag9
(g10
g11
Ntp4230
Rp4231
(dp4232
g15
I353
sg16
g7
sbag9
(g10
g11
Ntp4233
Rp4234
(dp4235
g15
I352
sg16
g7
sbag9
(g10
g11
Ntp4236
Rp4237
(dp4238
g15
I350
sg16
g7
sbag9
(g10
g11
Ntp4239
Rp4240
(dp4241
g15
I352
sg16
g7
sbag9
(g10
g11
Ntp4242
Rp4243
(dp4244
g15
I358
sg16
g7
sbag9
(g10
g11
Ntp4245
Rp4246
(dp4247
g15
I353
sg16
g7
sbasg50
(lp4248
g9
(g10
g11
Ntp4249
Rp4250
(dp4251
g15
I537
sg16
g50
sbag9
(g10
g11
Ntp4252
Rp4253
(dp4254
g15
I536
sg16
g50
sbag9
(g10
g11
Ntp4255
Rp4256
(dp4257
g15
I536
sg16
g50
sbag9
(g10
g11
Ntp4258
Rp4259
(dp4260
g15
I536
sg16
g50
sbag9
(g10
g11
Ntp4261
Rp4262
(dp4263
g15
I536
sg16
g50
sbag9
(g10
g11
Ntp4264
Rp4265
(dp4266
g15
I536
sg16
g50
sbag9
(g10
g11
Ntp4267
Rp4268
(dp4269
g15
I536
sg16
g50
sbag9
(g10
g11
Ntp4270
Rp4271
(dp4272
g15
I536
sg16
g50
sbag9
(g10
g11
Ntp4273
Rp4274
(dp4275
g15
I536
sg16
g50
sbag9
(g10
g11
Ntp4276
Rp4277
(dp4278
g15
I536
sg16
g50
sbag9
(g10
g11
Ntp4279
Rp4280
(dp4281
g15
I536
sg16
g50
sbag9
(g10
g11
Ntp4282
Rp4283
(dp4284
g15
I536
sg16
g50
sbasg88
(lp4285
g9
(g10
g11
Ntp4286
Rp4287
(dp4288
g15
I432
sg16
g88
sbag9
(g10
g11
Ntp4289
Rp4290
(dp4291
g15
I435
sg16
g88
sbag9
(g10
g11
Ntp4292
Rp4293
(dp4294
g15
I444
sg16
g88
sbag9
(g10
g11
Ntp4295
Rp4296
(dp4297
g15
I451
sg16
g88
sbag9
(g10
g11
Ntp4298
Rp4299
(dp4300
g15
I441
sg16
g88
sbag9
(g10
g11
Ntp4301
Rp4302
(dp4303
g15
I448
sg16
g88
sbag9
(g10
g11
Ntp4304
Rp4305
(dp4306
g15
I448
sg16
g88
sbag9
(g10
g11
Ntp4307
Rp4308
(dp4309
g15
I444
sg16
g88
sbag9
(g10
g11
Ntp4310
Rp4311
(dp4312
g15
I448
sg16
g88
sbag9
(g10
g11
Ntp4313
Rp4314
(dp4315
g15
I448
sg16
g88
sbag9
(g10
g11
Ntp4316
Rp4317
(dp4318
g15
I444
sg16
g88
sbag9
(g10
g11
Ntp4319
Rp4320
(dp4321
g15
I448
sg16
g88
sbasg126
(lp4322
g9
(g10
g11
Ntp4323
Rp4324
(dp4325
g15
I45825
sg16
g126
sbag9
(g10
g11
Ntp4326
Rp4327
(dp4328
g15
I54621
sg16
g126
sbag9
(g10
g11
Ntp4329
Rp4330
(dp4331
g15
I63418
sg16
g126
sbag9
(g10
g11
Ntp4332
Rp4333
(dp4334
g15
I21147
sg16
g126
sbag9
(g10
g11
Ntp4335
Rp4336
(dp4337
g15
I29944
sg16
g126
sbag9
(g10
g11
Ntp4338
Rp4339
(dp4340
g15
I38740
sg16
g126
sbag9
(g10
g11
Ntp4341
Rp4342
(dp4343
g15
I62008
sg16
g126
sbag9
(g10
g11
Ntp4344
Rp4345
(dp4346
g15
I5268
sg16
g126
sbag9
(g10
g11
Ntp4347
Rp4348
(dp4349
g15
I14065
sg16
g126
sbag9
(g10
g11
Ntp4350
Rp4351
(dp4352
g15
I37330
sg16
g126
sbag9
(g10
g11
Ntp4353
Rp4354
(dp4355
g15
I46127
sg16
g126
sbag9
(g10
g11
Ntp4356
Rp4357
(dp4358
g15
I54923
sg16
g126
sbasg164
(lp4359
g9
(g10
g11
Ntp4360
Rp4361
(dp4362
g15
I476
sg16
g164
sbag9
(g10
g11
Ntp4363
Rp4364
(dp4365
g15
I486
sg16
g164
sbag9
(g10
g11
Ntp4366
Rp4367
(dp4368
g15
I460
sg16
g164
sbag9
(g10
g11
Ntp4369
Rp4370
(dp4371
g15
I457
sg16
g164
sbag9
(g10
g11
Ntp4372
Rp4373
(dp4374
g15
I480
sg16
g164
sbag9
(g10
g11
Ntp4375
Rp4376
(dp4377
g15
I480
sg16
g164
sbag9
(g10
g11
Ntp4378
Rp4379
(dp4380
g15
I472
sg16
g164
sbag9
(g10
g11
Ntp4381
Rp4382
(dp4383
g15
I465
sg16
g164
sbag9
(g10
g11
Ntp4384
Rp4385
(dp4386
g15
I472
sg16
g164
sbag9
(g10
g11
Ntp4387
Rp4388
(dp4389
g15
I480
sg16
g164
sbag9
(g10
g11
Ntp4390
Rp4391
(dp4392
g15
I472
sg16
g164
sbag9
(g10
g11
Ntp4393
Rp4394
(dp4395
g15
I465
sg16
g164
sbasg202
(lp4396
g9
(g10
g11
Ntp4397
Rp4398
(dp4399
g15
I588
sg16
g202
sbag9
(g10
g11
Ntp4400
Rp4401
(dp4402
g15
I606
sg16
g202
sbag9
(g10
g11
Ntp4403
Rp4404
(dp4405
g15
I624
sg16
g202
sbag9
(g10
g11
Ntp4406
Rp4407
(dp4408
g15
I604
sg16
g202
sbag9
(g10
g11
Ntp4409
Rp4410
(dp4411
g15
I625
sg16
g202
sbag9
(g10
g11
Ntp4412
Rp4413
(dp4414
g15
I611
sg16
g202
sbag9
(g10
g11
Ntp4415
Rp4416
(dp4417
g15
I614
sg16
g202
sbag9
(g10
g11
Ntp4418
Rp4419
(dp4420
g15
I615
sg16
g202
sbag9
(g10
g11
Ntp4421
Rp4422
(dp4423
g15
I615
sg16
g202
sbag9
(g10
g11
Ntp4424
Rp4425
(dp4426
g15
I615
sg16
g202
sbag9
(g10
g11
Ntp4427
Rp4428
(dp4429
g15
I620
sg16
g202
sbag9
(g10
g11
Ntp4430
Rp4431
(dp4432
g15
I617
sg16
g202
sbasg240
(lp4433
g9
(g10
g11
Ntp4434
Rp4435
(dp4436
g15
I792
sg16
g240
sbag9
(g10
g11
Ntp4437
Rp4438
(dp4439
g15
I777
sg16
g240
sbag9
(g10
g11
Ntp4440
Rp4441
(dp4442
g15
I748
sg16
g240
sbag9
(g10
g11
Ntp4443
Rp4444
(dp4445
g15
I801
sg16
g240
sbag9
(g10
g11
Ntp4446
Rp4447
(dp4448
g15
I768
sg16
g240
sbag9
(g10
g11
Ntp4449
Rp4450
(dp4451
g15
I748
sg16
g240
sbag9
(g10
g11
Ntp4452
Rp4453
(dp4454
g15
I775
sg16
g240
sbag9
(g10
g11
Ntp4455
Rp4456
(dp4457
g15
I775
sg16
g240
sbag9
(g10
g11
Ntp4458
Rp4459
(dp4460
g15
I768
sg16
g240
sbag9
(g10
g11
Ntp4461
Rp4462
(dp4463
g15
I768
sg16
g240
sbag9
(g10
g11
Ntp4464
Rp4465
(dp4466
g15
I768
sg16
g240
sbag9
(g10
g11
Ntp4467
Rp4468
(dp4469
g15
I782
sg16
g240
sbass(F5.0
F-10.0
tp4470
g0
(g1
tp4471
Rp4472
g7
(lp4473
g9
(g10
g11
Ntp4474
Rp4475
(dp4476
g15
I327
sg16
g7
sbag9
(g10
g11
Ntp4477
Rp4478
(dp4479
g15
I359
sg16
g7
sbag9
(g10
g11
Ntp4480
Rp4481
(dp4482
g15
I376
sg16
g7
sbag9
(g10
g11
Ntp4483
Rp4484
(dp4485
g15
I335
sg16
g7
sbag9
(g10
g11
Ntp4486
Rp4487
(dp4488
g15
I318
sg16
g7
sbag9
(g10
g11
Ntp4489
Rp4490
(dp4491
g15
I340
sg16
g7
sbag9
(g10
g11
Ntp4492
Rp4493
(dp4494
g15
I352
sg16
g7
sbag9
(g10
g11
Ntp4495
Rp4496
(dp4497
g15
I355
sg16
g7
sbag9
(g10
g11
Ntp4498
Rp4499
(dp4500
g15
I359
sg16
g7
sbag9
(g10
g11
Ntp4501
Rp4502
(dp4503
g15
I376
sg16
g7
sbag9
(g10
g11
Ntp4504
Rp4505
(dp4506
g15
I376
sg16
g7
sbag9
(g10
g11
Ntp4507
Rp4508
(dp4509
g15
I339
sg16
g7
sbasg50
(lp4510
g9
(g10
g11
Ntp4511
Rp4512
(dp4513
g15
I536
sg16
g50
sbag9
(g10
g11
Ntp4514
Rp4515
(dp4516
g15
I536
sg16
g50
sbag9
(g10
g11
Ntp4517
Rp4518
(dp4519
g15
I531
sg16
g50
sbag9
(g10
g11
Ntp4520
Rp4521
(dp4522
g15
I536
sg16
g50
sbag9
(g10
g11
Ntp4523
Rp4524
(dp4525
g15
I536
sg16
g50
sbag9
(g10
g11
Ntp4526
Rp4527
(dp4528
g15
I536
sg16
g50
sbag9
(g10
g11
Ntp4529
Rp4530
(dp4531
g15
I536
sg16
g50
sbag9
(g10
g11
Ntp4532
Rp4533
(dp4534
g15
I536
sg16
g50
sbag9
(g10
g11
Ntp4535
Rp4536
(dp4537
g15
I536
sg16
g50
sbag9
(g10
g11
Ntp4538
Rp4539
(dp4540
g15
I536
sg16
g50
sbag9
(g10
g11
Ntp4541
Rp4542
(dp4543
g15
I536
sg16
g50
sbag9
(g10
g11
Ntp4544
Rp4545
(dp4546
g15
I536
sg16
g50
sbasg88
(lp4547
g9
(g10
g11
Ntp4548
Rp4549
(dp4550
g15
I448
sg16
g88
sbag9
(g10
g11
Ntp4551
Rp4552
(dp4553
g15
I448
sg16
g88
sbag9
(g10
g11
Ntp4554
Rp4555
(dp4556
g15
I448
sg16
g88
sbag9
(g10
g11
Ntp4557
Rp4558
(dp4559
g15
I448
sg16
g88
sbag9
(g10
g11
Ntp4560
Rp4561
(dp4562
g15
I448
sg16
g88
sbag9
(g10
g11
Ntp4563
Rp4564
(dp4565
g15
I448
sg16
g88
sbag9
(g10
g11
Ntp4566
Rp4567
(dp4568
g15
I444
sg16
g88
sbag9
(g10
g11
Ntp4569
Rp4570
(dp4571
g15
I444
sg16
g88
sbag9
(g10
g11
Ntp4572
Rp4573
(dp4574
g15
I444
sg16
g88
sbag9
(g10
g11
Ntp4575
Rp4576
(dp4577
g15
I433
sg16
g88
sbag9
(g10
g11
Ntp4578
Rp4579
(dp4580
g15
I444
sg16
g88
sbag9
(g10
g11
Ntp4581
Rp4582
(dp4583
g15
I451
sg16
g88
sbasg126
(lp4584
g9
(g10
g11
Ntp4585
Rp4586
(dp4587
g15
I9275
sg16
g126
sbag9
(g10
g11
Ntp4588
Rp4589
(dp4590
g15
I18071
sg16
g126
sbag9
(g10
g11
Ntp4591
Rp4592
(dp4593
g15
I26868
sg16
g126
sbag9
(g10
g11
Ntp4594
Rp4595
(dp4596
g15
I50133
sg16
g126
sbag9
(g10
g11
Ntp4597
Rp4598
(dp4599
g15
I58930
sg16
g126
sbag9
(g10
g11
Ntp4600
Rp4601
(dp4602
g15
I2190
sg16
g126
sbag9
(g10
g11
Ntp4603
Rp4604
(dp4605
g15
I25458
sg16
g126
sbag9
(g10
g11
Ntp4606
Rp4607
(dp4608
g15
I34254
sg16
g126
sbag9
(g10
g11
Ntp4609
Rp4610
(dp4611
g15
I43051
sg16
g126
sbag9
(g10
g11
Ntp4612
Rp4613
(dp4614
g15
I780
sg16
g126
sbag9
(g10
g11
Ntp4615
Rp4616
(dp4617
g15
I9577
sg16
g126
sbag9
(g10
g11
Ntp4618
Rp4619
(dp4620
g15
I18373
sg16
g126
sbasg164
(lp4621
g9
(g10
g11
Ntp4622
Rp4623
(dp4624
g15
I492
sg16
g164
sbag9
(g10
g11
Ntp4625
Rp4626
(dp4627
g15
I499
sg16
g164
sbag9
(g10
g11
Ntp4628
Rp4629
(dp4630
g15
I472
sg16
g164
sbag9
(g10
g11
Ntp4631
Rp4632
(dp4633
g15
I423
sg16
g164
sbag9
(g10
g11
Ntp4634
Rp4635
(dp4636
g15
I472
sg16
g164
sbag9
(g10
g11
Ntp4637
Rp4638
(dp4639
g15
I499
sg16
g164
sbag9
(g10
g11
Ntp4640
Rp4641
(dp4642
g15
I451
sg16
g164
sbag9
(g10
g11
Ntp4643
Rp4644
(dp4645
g15
I455
sg16
g164
sbag9
(g10
g11
Ntp4646
Rp4647
(dp4648
g15
I440
sg16
g164
sbag9
(g10
g11
Ntp4649
Rp4650
(dp4651
g15
I499
sg16
g164
sbag9
(g10
g11
Ntp4652
Rp4653
(dp4654
g15
I455
sg16
g164
sbag9
(g10
g11
Ntp4655
Rp4656
(dp4657
g15
I448
sg16
g164
sbasg202
(lp4658
g9
(g10
g11
Ntp4659
Rp4660
(dp4661
g15
I560
sg16
g202
sbag9
(g10
g11
Ntp4662
Rp4663
(dp4664
g15
I556
sg16
g202
sbag9
(g10
g11
Ntp4665
Rp4666
(dp4667
g15
I556
sg16
g202
sbag9
(g10
g11
Ntp4668
Rp4669
(dp4670
g15
I547
sg16
g202
sbag9
(g10
g11
Ntp4671
Rp4672
(dp4673
g15
I545
sg16
g202
sbag9
(g10
g11
Ntp4674
Rp4675
(dp4676
g15
I563
sg16
g202
sbag9
(g10
g11
Ntp4677
Rp4678
(dp4679
g15
I545
sg16
g202
sbag9
(g10
g11
Ntp4680
Rp4681
(dp4682
g15
I550
sg16
g202
sbag9
(g10
g11
Ntp4683
Rp4684
(dp4685
g15
I551
sg16
g202
sbag9
(g10
g11
Ntp4686
Rp4687
(dp4688
g15
I560
sg16
g202
sbag9
(g10
g11
Ntp4689
Rp4690
(dp4691
g15
I540
sg16
g202
sbag9
(g10
g11
Ntp4692
Rp4693
(dp4694
g15
I542
sg16
g202
sbasg240
(lp4695
g9
(g10
g11
Ntp4696
Rp4697
(dp4698
g15
I728
sg16
g240
sbag9
(g10
g11
Ntp4699
Rp4700
(dp4701
g15
I716
sg16
g240
sbag9
(g10
g11
Ntp4702
Rp4703
(dp4704
g15
I752
sg16
g240
sbag9
(g10
g11
Ntp4705
Rp4706
(dp4707
g15
I812
sg16
g240
sbag9
(g10
g11
Ntp4708
Rp4709
(dp4710
g15
I771
sg16
g240
sbag9
(g10
g11
Ntp4711
Rp4712
(dp4713
g15
I711
sg16
g240
sbag9
(g10
g11
Ntp4714
Rp4715
(dp4716
g15
I799
sg16
g240
sbag9
(g10
g11
Ntp4717
Rp4718
(dp4719
g15
I760
sg16
g240
sbag9
(g10
g11
Ntp4720
Rp4721
(dp4722
g15
I801
sg16
g240
sbag9
(g10
g11
Ntp4723
Rp4724
(dp4725
g15
I710
sg16
g240
sbag9
(g10
g11
Ntp4726
Rp4727
(dp4728
g15
I780
sg16
g240
sbag9
(g10
g11
Ntp4729
Rp4730
(dp4731
g15
I798
sg16
g240
sbass(F5.0
F10.0
tp4732
g0
(g1
tp4733
Rp4734
g7
(lp4735
g9
(g10
g11
Ntp4736
Rp4737
(dp4738
g15
I353
sg16
g7
sbag9
(g10
g11
Ntp4739
Rp4740
(dp4741
g15
I344
sg16
g7
sbag9
(g10
g11
Ntp4742
Rp4743
(dp4744
g15
I355
sg16
g7
sbag9
(g10
g11
Ntp4745
Rp4746
(dp4747
g15
I352
sg16
g7
sbag9
(g10
g11
Ntp4748
Rp4749
(dp4750
g15
I353
sg16
g7
sbag9
(g10
g11
Ntp4751
Rp4752
(dp4753
g15
I344
sg16
g7
sbag9
(g10
g11
Ntp4754
Rp4755
(dp4756
g15
I344
sg16
g7
sbag9
(g10
g11
Ntp4757
Rp4758
(dp4759
g15
I345
sg16
g7
sbag9
(g10
g11
Ntp4760
Rp4761
(dp4762
g15
I359
sg16
g7
sbag9
(g10
g11
Ntp4763
Rp4764
(dp4765
g15
I355
sg16
g7
sbag9
(g10
g11
Ntp4766
Rp4767
(dp4768
g15
I345
sg16
g7
sbag9
(g10
g11
Ntp4769
Rp4770
(dp4771
g15
I344
sg16
g7
sbasg50
(lp4772
g9
(g10
g11
Ntp4773
Rp4774
(dp4775
g15
I536
sg16
g50
sbag9
(g10
g11
Ntp4776
Rp4777
(dp4778
g15
I536
sg16
g50
sbag9
(g10
g11
Ntp4779
Rp4780
(dp4781
g15
I536
sg16
g50
sbag9
(g10
g11
Ntp4782
Rp4783
(dp4784
g15
I536
sg16
g50
sbag9
(g10
g11
Ntp4785
Rp4786
(dp4787
g15
I536
sg16
g50
sbag9
(g10
g11
Ntp4788
Rp4789
(dp4790
g15
I536
sg16
g50
sbag9
(g10
g11
Ntp4791
Rp4792
(dp4793
g15
I536
sg16
g50
sbag9
(g10
g11
Ntp4794
Rp4795
(dp4796
g15
I536
sg16
g50
sbag9
(g10
g11
Ntp4797
Rp4798
(dp4799
g15
I536
sg16
g50
sbag9
(g10
g11
Ntp4800
Rp4801
(dp4802
g15
I536
sg16
g50
sbag9
(g10
g11
Ntp4803
Rp4804
(dp4805
g15
I536
sg16
g50
sbag9
(g10
g11
Ntp4806
Rp4807
(dp4808
g15
I536
sg16
g50
sbasg88
(lp4809
g9
(g10
g11
Ntp4810
Rp4811
(dp4812
g15
I572
sg16
g88
sbag9
(g10
g11
Ntp4813
Rp4814
(dp4815
g15
I572
sg16
g88
sbag9
(g10
g11
Ntp4816
Rp4817
(dp4818
g15
I600
sg16
g88
sbag9
(g10
g11
Ntp4819
Rp4820
(dp4821
g15
I608
sg16
g88
sbag9
(g10
g11
Ntp4822
Rp4823
(dp4824
g15
I593
sg16
g88
sbag9
(g10
g11
Ntp4825
Rp4826
(dp4827
g15
I600
sg16
g88
sbag9
(g10
g11
Ntp4828
Rp4829
(dp4830
g15
I531
sg16
g88
sbag9
(g10
g11
Ntp4831
Rp4832
(dp4833
g15
I496
sg16
g88
sbag9
(g10
g11
Ntp4834
Rp4835
(dp4836
g15
I467
sg16
g88
sbag9
(g10
g11
Ntp4837
Rp4838
(dp4839
g15
I519
sg16
g88
sbag9
(g10
g11
Ntp4840
Rp4841
(dp4842
g15
I476
sg16
g88
sbag9
(g10
g11
Ntp4843
Rp4844
(dp4845
g15
I462
sg16
g88
sbasg126
(lp4846
g9
(g10
g11
Ntp4847
Rp4848
(dp4849
g15
I5885
sg16
g126
sbag9
(g10
g11
Ntp4850
Rp4851
(dp4852
g15
I14682
sg16
g126
sbag9
(g10
g11
Ntp4853
Rp4854
(dp4855
g15
I23478
sg16
g126
sbag9
(g10
g11
Ntp4856
Rp4857
(dp4858
g15
I46746
sg16
g126
sbag9
(g10
g11
Ntp4859
Rp4860
(dp4861
g15
I55542
sg16
g126
sbag9
(g10
g11
Ntp4862
Rp4863
(dp4864
g15
I64339
sg16
g126
sbag9
(g10
g11
Ntp4865
Rp4866
(dp4867
g15
I22068
sg16
g126
sbag9
(g10
g11
Ntp4868
Rp4869
(dp4870
g15
I30865
sg16
g126
sbag9
(g10
g11
Ntp4871
Rp4872
(dp4873
g15
I39661
sg16
g126
sbag9
(g10
g11
Ntp4874
Rp4875
(dp4876
g15
I62929
sg16
g126
sbag9
(g10
g11
Ntp4877
Rp4878
(dp4879
g15
I6189
sg16
g126
sbag9
(g10
g11
Ntp4880
Rp4881
(dp4882
g15
I14986
sg16
g126
sbasg164
(lp4883
g9
(g10
g11
Ntp4884
Rp4885
(dp4886
g15
I448
sg16
g164
sbag9
(g10
g11
Ntp4887
Rp4888
(dp4889
g15
I444
sg16
g164
sbag9
(g10
g11
Ntp4890
Rp4891
(dp4892
g15
I460
sg16
g164
sbag9
(g10
g11
Ntp4893
Rp4894
(dp4895
g15
I473
sg16
g164
sbag9
(g10
g11
Ntp4896
Rp4897
(dp4898
g15
I460
sg16
g164
sbag9
(g10
g11
Ntp4899
Rp4900
(dp4901
g15
I460
sg16
g164
sbag9
(g10
g11
Ntp4902
Rp4903
(dp4904
g15
I448
sg16
g164
sbag9
(g10
g11
Ntp4905
Rp4906
(dp4907
g15
I472
sg16
g164
sbag9
(g10
g11
Ntp4908
Rp4909
(dp4910
g15
I467
sg16
g164
sbag9
(g10
g11
Ntp4911
Rp4912
(dp4913
g15
I448
sg16
g164
sbag9
(g10
g11
Ntp4914
Rp4915
(dp4916
g15
I448
sg16
g164
sbag9
(g10
g11
Ntp4917
Rp4918
(dp4919
g15
I455
sg16
g164
sbasg202
(lp4920
g9
(g10
g11
Ntp4921
Rp4922
(dp4923
g15
I636
sg16
g202
sbag9
(g10
g11
Ntp4924
Rp4925
(dp4926
g15
I659
sg16
g202
sbag9
(g10
g11
Ntp4927
Rp4928
(dp4929
g15
I600
sg16
g202
sbag9
(g10
g11
Ntp4930
Rp4931
(dp4932
g15
I655
sg16
g202
sbag9
(g10
g11
Ntp4933
Rp4934
(dp4935
g15
I655
sg16
g202
sbag9
(g10
g11
Ntp4936
Rp4937
(dp4938
g15
I624
sg16
g202
sbag9
(g10
g11
Ntp4939
Rp4940
(dp4941
g15
I686
sg16
g202
sbag9
(g10
g11
Ntp4942
Rp4943
(dp4944
g15
I654
sg16
g202
sbag9
(g10
g11
Ntp4945
Rp4946
(dp4947
g15
I652
sg16
g202
sbag9
(g10
g11
Ntp4948
Rp4949
(dp4950
g15
I620
sg16
g202
sbag9
(g10
g11
Ntp4951
Rp4952
(dp4953
g15
I639
sg16
g202
sbag9
(g10
g11
Ntp4954
Rp4955
(dp4956
g15
I688
sg16
g202
sbasg240
(lp4957
g9
(g10
g11
Ntp4958
Rp4959
(dp4960
g15
I783
sg16
g240
sbag9
(g10
g11
Ntp4961
Rp4962
(dp4963
g15
I743
sg16
g240
sbag9
(g10
g11
Ntp4964
Rp4965
(dp4966
g15
I812
sg16
g240
sbag9
(g10
g11
Ntp4967
Rp4968
(dp4969
g15
I743
sg16
g240
sbag9
(g10
g11
Ntp4970
Rp4971
(dp4972
g15
I736
sg16
g240
sbag9
(g10
g11
Ntp4973
Rp4974
(dp4975
g15
I787
sg16
g240
sbag9
(g10
g11
Ntp4976
Rp4977
(dp4978
g15
I742
sg16
g240
sbag9
(g10
g11
Ntp4979
Rp4980
(dp4981
g15
I736
sg16
g240
sbag9
(g10
g11
Ntp4982
Rp4983
(dp4984
g15
I743
sg16
g240
sbag9
(g10
g11
Ntp4985
Rp4986
(dp4987
g15
I775
sg16
g240
sbag9
(g10
g11
Ntp4988
Rp4989
(dp4990
g15
I775
sg16
g240
sbag9
(g10
g11
Ntp4991
Rp4992
(dp4993
g15
I728
sg16
g240
sbass(F5.0
F5.0
tp4994
g0
(g1
tp4995
Rp4996
g7
(lp4997
g9
(g10
g11
Ntp4998
Rp4999
(dp5000
g15
I366
sg16
g7
sbag9
(g10
g11
Ntp5001
Rp5002
(dp5003
g15
I353
sg16
g7
sbag9
(g10
g11
Ntp5004
Rp5005
(dp5006
g15
I344
sg16
g7
sbag9
(g10
g11
Ntp5007
Rp5008
(dp5009
g15
I352
sg16
g7
sbag9
(g10
g11
Ntp5010
Rp5011
(dp5012
g15
I348
sg16
g7
sbag9
(g10
g11
Ntp5013
Rp5014
(dp5015
g15
I352
sg16
g7
sbag9
(g10
g11
Ntp5016
Rp5017
(dp5018
g15
I355
sg16
g7
sbag9
(g10
g11
Ntp5019
Rp5020
(dp5021
g15
I350
sg16
g7
sbag9
(g10
g11
Ntp5022
Rp5023
(dp5024
g15
I352
sg16
g7
sbag9
(g10
g11
Ntp5025
Rp5026
(dp5027
g15
I359
sg16
g7
sbag9
(g10
g11
Ntp5028
Rp5029
(dp5030
g15
I352
sg16
g7
sbag9
(g10
g11
Ntp5031
Rp5032
(dp5033
g15
I344
sg16
g7
sbasg50
(lp5034
g9
(g10
g11
Ntp5035
Rp5036
(dp5037
g15
I536
sg16
g50
sbag9
(g10
g11
Ntp5038
Rp5039
(dp5040
g15
I536
sg16
g50
sbag9
(g10
g11
Ntp5041
Rp5042
(dp5043
g15
I547
sg16
g50
sbag9
(g10
g11
Ntp5044
Rp5045
(dp5046
g15
I536
sg16
g50
sbag9
(g10
g11
Ntp5047
Rp5048
(dp5049
g15
I536
sg16
g50
sbag9
(g10
g11
Ntp5050
Rp5051
(dp5052
g15
I550
sg16
g50
sbag9
(g10
g11
Ntp5053
Rp5054
(dp5055
g15
I536
sg16
g50
sbag9
(g10
g11
Ntp5056
Rp5057
(dp5058
g15
I536
sg16
g50
sbag9
(g10
g11
Ntp5059
Rp5060
(dp5061
g15
I547
sg16
g50
sbag9
(g10
g11
Ntp5062
Rp5063
(dp5064
g15
I536
sg16
g50
sbag9
(g10
g11
Ntp5065
Rp5066
(dp5067
g15
I540
sg16
g50
sbag9
(g10
g11
Ntp5068
Rp5069
(dp5070
g15
I542
sg16
g50
sbasg88
(lp5071
g9
(g10
g11
Ntp5072
Rp5073
(dp5074
g15
I463
sg16
g88
sbag9
(g10
g11
Ntp5075
Rp5076
(dp5077
g15
I433
sg16
g88
sbag9
(g10
g11
Ntp5078
Rp5079
(dp5080
g15
I451
sg16
g88
sbag9
(g10
g11
Ntp5081
Rp5082
(dp5083
g15
I448
sg16
g88
sbag9
(g10
g11
Ntp5084
Rp5085
(dp5086
g15
I444
sg16
g88
sbag9
(g10
g11
Ntp5087
Rp5088
(dp5089
g15
I440
sg16
g88
sbag9
(g10
g11
Ntp5090
Rp5091
(dp5092
g15
I448
sg16
g88
sbag9
(g10
g11
Ntp5093
Rp5094
(dp5095
g15
I444
sg16
g88
sbag9
(g10
g11
Ntp5096
Rp5097
(dp5098
g15
I440
sg16
g88
sbag9
(g10
g11
Ntp5099
Rp5100
(dp5101
g15
I444
sg16
g88
sbag9
(g10
g11
Ntp5102
Rp5103
(dp5104
g15
I444
sg16
g88
sbag9
(g10
g11
Ntp5105
Rp5106
(dp5107
g15
I444
sg16
g88
sbasg126
(lp5108
g9
(g10
g11
Ntp5109
Rp5110
(dp5111
g15
I15988
sg16
g126
sbag9
(g10
g11
Ntp5112
Rp5113
(dp5114
g15
I24784
sg16
g126
sbag9
(g10
g11
Ntp5115
Rp5116
(dp5117
g15
I33581
sg16
g126
sbag9
(g10
g11
Ntp5118
Rp5119
(dp5120
g15
I56846
sg16
g126
sbag9
(g10
g11
Ntp5121
Rp5122
(dp5123
g15
I107
sg16
g126
sbag9
(g10
g11
Ntp5124
Rp5125
(dp5126
g15
I8903
sg16
g126
sbag9
(g10
g11
Ntp5127
Rp5128
(dp5129
g15
I32171
sg16
g126
sbag9
(g10
g11
Ntp5130
Rp5131
(dp5132
g15
I40967
sg16
g126
sbag9
(g10
g11
Ntp5133
Rp5134
(dp5135
g15
I49764
sg16
g126
sbag9
(g10
g11
Ntp5136
Rp5137
(dp5138
g15
I7493
sg16
g126
sbag9
(g10
g11
Ntp5139
Rp5140
(dp5141
g15
I16290
sg16
g126
sbag9
(g10
g11
Ntp5142
Rp5143
(dp5144
g15
I25086
sg16
g126
sbasg164
(lp5145
g9
(g10
g11
Ntp5146
Rp5147
(dp5148
g15
I476
sg16
g164
sbag9
(g10
g11
Ntp5149
Rp5150
(dp5151
g15
I449
sg16
g164
sbag9
(g10
g11
Ntp5152
Rp5153
(dp5154
g15
I462
sg16
g164
sbag9
(g10
g11
Ntp5155
Rp5156
(dp5157
g15
I449
sg16
g164
sbag9
(g10
g11
Ntp5158
Rp5159
(dp5160
g15
I460
sg16
g164
sbag9
(g10
g11
Ntp5161
Rp5162
(dp5163
g15
I463
sg16
g164
sbag9
(g10
g11
Ntp5164
Rp5165
(dp5166
g15
I455
sg16
g164
sbag9
(g10
g11
Ntp5167
Rp5168
(dp5169
g15
I455
sg16
g164
sbag9
(g10
g11
Ntp5170
Rp5171
(dp5172
g15
I455
sg16
g164
sbag9
(g10
g11
Ntp5173
Rp5174
(dp5175
g15
I462
sg16
g164
sbag9
(g10
g11
Ntp5176
Rp5177
(dp5178
g15
I451
sg16
g164
sbag9
(g10
g11
Ntp5179
Rp5180
(dp5181
g15
I460
sg16
g164
sbasg202
(lp5182
g9
(g10
g11
Ntp5183
Rp5184
(dp5185
g15
I588
sg16
g202
sbag9
(g10
g11
Ntp5186
Rp5187
(dp5188
g15
I647
sg16
g202
sbag9
(g10
g11
Ntp5189
Rp5190
(dp5191
g15
I608
sg16
g202
sbag9
(g10
g11
Ntp5192
Rp5193
(dp5194
g15
I611
sg16
g202
sbag9
(g10
g11
Ntp5195
Rp5196
(dp5197
g15
I624
sg16
g202
sbag9
(g10
g11
Ntp5198
Rp5199
(dp5200
g15
I612
sg16
g202
sbag9
(g10
g11
Ntp5201
Rp5202
(dp5203
g15
I622
sg16
g202
sbag9
(g10
g11
Ntp5204
Rp5205
(dp5206
g15
I624
sg16
g202
sbag9
(g10
g11
Ntp5207
Rp5208
(dp5209
g15
I615
sg16
g202
sbag9
(g10
g11
Ntp5210
Rp5211
(dp5212
g15
I615
sg16
g202
sbag9
(g10
g11
Ntp5213
Rp5214
(dp5215
g15
I617
sg16
g202
sbag9
(g10
g11
Ntp5216
Rp5217
(dp5218
g15
I608
sg16
g202
sbasg240
(lp5219
g9
(g10
g11
Ntp5220
Rp5221
(dp5222
g15
I774
sg16
g240
sbag9
(g10
g11
Ntp5223
Rp5224
(dp5225
g15
I769
sg16
g240
sbag9
(g10
g11
Ntp5226
Rp5227
(dp5228
g15
I777
sg16
g240
sbag9
(g10
g11
Ntp5229
Rp5230
(dp5231
g15
I793
sg16
g240
sbag9
(g10
g11
Ntp5232
Rp5233
(dp5234
g15
I768
sg16
g240
sbag9
(g10
g11
Ntp5235
Rp5236
(dp5237
g15
I771
sg16
g240
sbag9
(g10
g11
Ntp5238
Rp5239
(dp5240
g15
I783
sg16
g240
sbag9
(g10
g11
Ntp5241
Rp5242
(dp5243
g15
I775
sg16
g240
sbag9
(g10
g11
Ntp5244
Rp5245
(dp5246
g15
I771
sg16
g240
sbag9
(g10
g11
Ntp5247
Rp5248
(dp5249
g15
I768
sg16
g240
sbag9
(g10
g11
Ntp5250
Rp5251
(dp5252
g15
I782
sg16
g240
sbag9
(g10
g11
Ntp5253
Rp5254
(dp5255
g15
I775
sg16
g240
sbass(F-2.5
F-10.0
tp5256
g0
(g1
tp5257
Rp5258
g7
(lp5259
g9
(g10
g11
Ntp5260
Rp5261
(dp5262
g15
I352
sg16
g7
sbag9
(g10
g11
Ntp5263
Rp5264
(dp5265
g15
I352
sg16
g7
sbag9
(g10
g11
Ntp5266
Rp5267
(dp5268
g15
I352
sg16
g7
sbag9
(g10
g11
Ntp5269
Rp5270
(dp5271
g15
I352
sg16
g7
sbag9
(g10
g11
Ntp5272
Rp5273
(dp5274
g15
I352
sg16
g7
sbag9
(g10
g11
Ntp5275
Rp5276
(dp5277
g15
I352
sg16
g7
sbag9
(g10
g11
Ntp5278
Rp5279
(dp5280
g15
I352
sg16
g7
sbag9
(g10
g11
Ntp5281
Rp5282
(dp5283
g15
I352
sg16
g7
sbag9
(g10
g11
Ntp5284
Rp5285
(dp5286
g15
I352
sg16
g7
sbag9
(g10
g11
Ntp5287
Rp5288
(dp5289
g15
I352
sg16
g7
sbag9
(g10
g11
Ntp5290
Rp5291
(dp5292
g15
I352
sg16
g7
sbag9
(g10
g11
Ntp5293
Rp5294
(dp5295
g15
I352
sg16
g7
sbasg50
(lp5296
g9
(g10
g11
Ntp5297
Rp5298
(dp5299
g15
I550
sg16
g50
sbag9
(g10
g11
Ntp5300
Rp5301
(dp5302
g15
I536
sg16
g50
sbag9
(g10
g11
Ntp5303
Rp5304
(dp5305
g15
I536
sg16
g50
sbag9
(g10
g11
Ntp5306
Rp5307
(dp5308
g15
I550
sg16
g50
sbag9
(g10
g11
Ntp5309
Rp5310
(dp5311
g15
I536
sg16
g50
sbag9
(g10
g11
Ntp5312
Rp5313
(dp5314
g15
I536
sg16
g50
sbag9
(g10
g11
Ntp5315
Rp5316
(dp5317
g15
I543
sg16
g50
sbag9
(g10
g11
Ntp5318
Rp5319
(dp5320
g15
I536
sg16
g50
sbag9
(g10
g11
Ntp5321
Rp5322
(dp5323
g15
I536
sg16
g50
sbag9
(g10
g11
Ntp5324
Rp5325
(dp5326
g15
I540
sg16
g50
sbag9
(g10
g11
Ntp5327
Rp5328
(dp5329
g15
I536
sg16
g50
sbag9
(g10
g11
Ntp5330
Rp5331
(dp5332
g15
I536
sg16
g50
sbasg88
(lp5333
g9
(g10
g11
Ntp5334
Rp5335
(dp5336
g15
I440
sg16
g88
sbag9
(g10
g11
Ntp5337
Rp5338
(dp5339
g15
I448
sg16
g88
sbag9
(g10
g11
Ntp5340
Rp5341
(dp5342
g15
I448
sg16
g88
sbag9
(g10
g11
Ntp5343
Rp5344
(dp5345
g15
I440
sg16
g88
sbag9
(g10
g11
Ntp5346
Rp5347
(dp5348
g15
I448
sg16
g88
sbag9
(g10
g11
Ntp5349
Rp5350
(dp5351
g15
I448
sg16
g88
sbag9
(g10
g11
Ntp5352
Rp5353
(dp5354
g15
I440
sg16
g88
sbag9
(g10
g11
Ntp5355
Rp5356
(dp5357
g15
I448
sg16
g88
sbag9
(g10
g11
Ntp5358
Rp5359
(dp5360
g15
I448
sg16
g88
sbag9
(g10
g11
Ntp5361
Rp5362
(dp5363
g15
I444
sg16
g88
sbag9
(g10
g11
Ntp5364
Rp5365
(dp5366
g15
I448
sg16
g88
sbag9
(g10
g11
Ntp5367
Rp5368
(dp5369
g15
I448
sg16
g88
sbasg126
(lp5370
g9
(g10
g11
Ntp5371
Rp5372
(dp5373
g15
I47881
sg16
g126
sbag9
(g10
g11
Ntp5374
Rp5375
(dp5376
g15
I56677
sg16
g126
sbag9
(g10
g11
Ntp5377
Rp5378
(dp5379
g15
I65474
sg16
g126
sbag9
(g10
g11
Ntp5380
Rp5381
(dp5382
g15
I23203
sg16
g126
sbag9
(g10
g11
Ntp5383
Rp5384
(dp5385
g15
I32000
sg16
g126
sbag9
(g10
g11
Ntp5386
Rp5387
(dp5388
g15
I40796
sg16
g126
sbag9
(g10
g11
Ntp5389
Rp5390
(dp5391
g15
I64064
sg16
g126
sbag9
(g10
g11
Ntp5392
Rp5393
(dp5394
g15
I7324
sg16
g126
sbag9
(g10
g11
Ntp5395
Rp5396
(dp5397
g15
I16121
sg16
g126
sbag9
(g10
g11
Ntp5398
Rp5399
(dp5400
g15
I39386
sg16
g126
sbag9
(g10
g11
Ntp5401
Rp5402
(dp5403
g15
I48183
sg16
g126
sbag9
(g10
g11
Ntp5404
Rp5405
(dp5406
g15
I56979
sg16
g126
sbasg164
(lp5407
g9
(g10
g11
Ntp5408
Rp5409
(dp5410
g15
I494
sg16
g164
sbag9
(g10
g11
Ntp5411
Rp5412
(dp5413
g15
I496
sg16
g164
sbag9
(g10
g11
Ntp5414
Rp5415
(dp5416
g15
I494
sg16
g164
sbag9
(g10
g11
Ntp5417
Rp5418
(dp5419
g15
I494
sg16
g164
sbag9
(g10
g11
Ntp5420
Rp5421
(dp5422
g15
I496
sg16
g164
sbag9
(g10
g11
Ntp5423
Rp5424
(dp5425
g15
I494
sg16
g164
sbag9
(g10
g11
Ntp5426
Rp5427
(dp5428
g15
I492
sg16
g164
sbag9
(g10
g11
Ntp5429
Rp5430
(dp5431
g15
I496
sg16
g164
sbag9
(g10
g11
Ntp5432
Rp5433
(dp5434
g15
I494
sg16
g164
sbag9
(g10
g11
Ntp5435
Rp5436
(dp5437
g15
I489
sg16
g164
sbag9
(g10
g11
Ntp5438
Rp5439
(dp5440
g15
I496
sg16
g164
sbag9
(g10
g11
Ntp5441
Rp5442
(dp5443
g15
I496
sg16
g164
sbasg202
(lp5444
g9
(g10
g11
Ntp5445
Rp5446
(dp5447
g15
I574
sg16
g202
sbag9
(g10
g11
Ntp5448
Rp5449
(dp5450
g15
I572
sg16
g202
sbag9
(g10
g11
Ntp5451
Rp5452
(dp5453
g15
I568
sg16
g202
sbag9
(g10
g11
Ntp5454
Rp5455
(dp5456
g15
I568
sg16
g202
sbag9
(g10
g11
Ntp5457
Rp5458
(dp5459
g15
I574
sg16
g202
sbag9
(g10
g11
Ntp5460
Rp5461
(dp5462
g15
I572
sg16
g202
sbag9
(g10
g11
Ntp5463
Rp5464
(dp5465
g15
I572
sg16
g202
sbag9
(g10
g11
Ntp5466
Rp5467
(dp5468
g15
I569
sg16
g202
sbag9
(g10
g11
Ntp5469
Rp5470
(dp5471
g15
I574
sg16
g202
sbag9
(g10
g11
Ntp5472
Rp5473
(dp5474
g15
I572
sg16
g202
sbag9
(g10
g11
Ntp5475
Rp5476
(dp5477
g15
I575
sg16
g202
sbag9
(g10
g11
Ntp5478
Rp5479
(dp5480
g15
I569
sg16
g202
sbasg240
(lp5481
g9
(g10
g11
Ntp5482
Rp5483
(dp5484
g15
I771
sg16
g240
sbag9
(g10
g11
Ntp5485
Rp5486
(dp5487
g15
I771
sg16
g240
sbag9
(g10
g11
Ntp5488
Rp5489
(dp5490
g15
I771
sg16
g240
sbag9
(g10
g11
Ntp5491
Rp5492
(dp5493
g15
I769
sg16
g240
sbag9
(g10
g11
Ntp5494
Rp5495
(dp5496
g15
I771
sg16
g240
sbag9
(g10
g11
Ntp5497
Rp5498
(dp5499
g15
I772
sg16
g240
sbag9
(g10
g11
Ntp5500
Rp5501
(dp5502
g15
I769
sg16
g240
sbag9
(g10
g11
Ntp5503
Rp5504
(dp5505
g15
I771
sg16
g240
sbag9
(g10
g11
Ntp5506
Rp5507
(dp5508
g15
I769
sg16
g240
sbag9
(g10
g11
Ntp5509
Rp5510
(dp5511
g15
I771
sg16
g240
sbag9
(g10
g11
Ntp5512
Rp5513
(dp5514
g15
I769
sg16
g240
sbag9
(g10
g11
Ntp5515
Rp5516
(dp5517
g15
I771
sg16
g240
sbass(F0.0
F5.0
tp5518
g0
(g1
tp5519
Rp5520
g7
(lp5521
g9
(g10
g11
Ntp5522
Rp5523
(dp5524
g15
I352
sg16
g7
sbag9
(g10
g11
Ntp5525
Rp5526
(dp5527
g15
I352
sg16
g7
sbag9
(g10
g11
Ntp5528
Rp5529
(dp5530
g15
I352
sg16
g7
sbag9
(g10
g11
Ntp5531
Rp5532
(dp5533
g15
I353
sg16
g7
sbag9
(g10
g11
Ntp5534
Rp5535
(dp5536
g15
I352
sg16
g7
sbag9
(g10
g11
Ntp5537
Rp5538
(dp5539
g15
I352
sg16
g7
sbag9
(g10
g11
Ntp5540
Rp5541
(dp5542
g15
I352
sg16
g7
sbag9
(g10
g11
Ntp5543
Rp5544
(dp5545
g15
I352
sg16
g7
sbag9
(g10
g11
Ntp5546
Rp5547
(dp5548
g15
I352
sg16
g7
sbag9
(g10
g11
Ntp5549
Rp5550
(dp5551
g15
I352
sg16
g7
sbag9
(g10
g11
Ntp5552
Rp5553
(dp5554
g15
I353
sg16
g7
sbag9
(g10
g11
Ntp5555
Rp5556
(dp5557
g15
I353
sg16
g7
sbasg50
(lp5558
g9
(g10
g11
Ntp5559
Rp5560
(dp5561
g15
I550
sg16
g50
sbag9
(g10
g11
Ntp5562
Rp5563
(dp5564
g15
I536
sg16
g50
sbag9
(g10
g11
Ntp5565
Rp5566
(dp5567
g15
I536
sg16
g50
sbag9
(g10
g11
Ntp5568
Rp5569
(dp5570
g15
I543
sg16
g50
sbag9
(g10
g11
Ntp5571
Rp5572
(dp5573
g15
I536
sg16
g50
sbag9
(g10
g11
Ntp5574
Rp5575
(dp5576
g15
I536
sg16
g50
sbag9
(g10
g11
Ntp5577
Rp5578
(dp5579
g15
I540
sg16
g50
sbag9
(g10
g11
Ntp5580
Rp5581
(dp5582
g15
I536
sg16
g50
sbag9
(g10
g11
Ntp5583
Rp5584
(dp5585
g15
I536
sg16
g50
sbag9
(g10
g11
Ntp5586
Rp5587
(dp5588
g15
I540
sg16
g50
sbag9
(g10
g11
Ntp5589
Rp5590
(dp5591
g15
I536
sg16
g50
sbag9
(g10
g11
Ntp5592
Rp5593
(dp5594
g15
I536
sg16
g50
sbasg88
(lp5595
g9
(g10
g11
Ntp5596
Rp5597
(dp5598
g15
I440
sg16
g88
sbag9
(g10
g11
Ntp5599
Rp5600
(dp5601
g15
I448
sg16
g88
sbag9
(g10
g11
Ntp5602
Rp5603
(dp5604
g15
I444
sg16
g88
sbag9
(g10
g11
Ntp5605
Rp5606
(dp5607
g15
I440
sg16
g88
sbag9
(g10
g11
Ntp5608
Rp5609
(dp5610
g15
I448
sg16
g88
sbag9
(g10
g11
Ntp5611
Rp5612
(dp5613
g15
I448
sg16
g88
sbag9
(g10
g11
Ntp5614
Rp5615
(dp5616
g15
I440
sg16
g88
sbag9
(g10
g11
Ntp5617
Rp5618
(dp5619
g15
I448
sg16
g88
sbag9
(g10
g11
Ntp5620
Rp5621
(dp5622
g15
I448
sg16
g88
sbag9
(g10
g11
Ntp5623
Rp5624
(dp5625
g15
I441
sg16
g88
sbag9
(g10
g11
Ntp5626
Rp5627
(dp5628
g15
I448
sg16
g88
sbag9
(g10
g11
Ntp5629
Rp5630
(dp5631
g15
I448
sg16
g88
sbasg126
(lp5632
g9
(g10
g11
Ntp5633
Rp5634
(dp5635
g15
I42717
sg16
g126
sbag9
(g10
g11
Ntp5636
Rp5637
(dp5638
g15
I51513
sg16
g126
sbag9
(g10
g11
Ntp5639
Rp5640
(dp5641
g15
I60310
sg16
g126
sbag9
(g10
g11
Ntp5642
Rp5643
(dp5644
g15
I18039
sg16
g126
sbag9
(g10
g11
Ntp5645
Rp5646
(dp5647
g15
I26836
sg16
g126
sbag9
(g10
g11
Ntp5648
Rp5649
(dp5650
g15
I35632
sg16
g126
sbag9
(g10
g11
Ntp5651
Rp5652
(dp5653
g15
I58900
sg16
g126
sbag9
(g10
g11
Ntp5654
Rp5655
(dp5656
g15
I2160
sg16
g126
sbag9
(g10
g11
Ntp5657
Rp5658
(dp5659
g15
I10957
sg16
g126
sbag9
(g10
g11
Ntp5660
Rp5661
(dp5662
g15
I34222
sg16
g126
sbag9
(g10
g11
Ntp5663
Rp5664
(dp5665
g15
I43019
sg16
g126
sbag9
(g10
g11
Ntp5666
Rp5667
(dp5668
g15
I51815
sg16
g126
sbasg164
(lp5669
g9
(g10
g11
Ntp5670
Rp5671
(dp5672
g15
I480
sg16
g164
sbag9
(g10
g11
Ntp5673
Rp5674
(dp5675
g15
I483
sg16
g164
sbag9
(g10
g11
Ntp5676
Rp5677
(dp5678
g15
I483
sg16
g164
sbag9
(g10
g11
Ntp5679
Rp5680
(dp5681
g15
I480
sg16
g164
sbag9
(g10
g11
Ntp5682
Rp5683
(dp5684
g15
I480
sg16
g164
sbag9
(g10
g11
Ntp5685
Rp5686
(dp5687
g15
I483
sg16
g164
sbag9
(g10
g11
Ntp5688
Rp5689
(dp5690
g15
I481
sg16
g164
sbag9
(g10
g11
Ntp5691
Rp5692
(dp5693
g15
I483
sg16
g164
sbag9
(g10
g11
Ntp5694
Rp5695
(dp5696
g15
I480
sg16
g164
sbag9
(g10
g11
Ntp5697
Rp5698
(dp5699
g15
I481
sg16
g164
sbag9
(g10
g11
Ntp5700
Rp5701
(dp5702
g15
I483
sg16
g164
sbag9
(g10
g11
Ntp5703
Rp5704
(dp5705
g15
I480
sg16
g164
sbasg202
(lp5706
g9
(g10
g11
Ntp5707
Rp5708
(dp5709
g15
I591
sg16
g202
sbag9
(g10
g11
Ntp5710
Rp5711
(dp5712
g15
I593
sg16
g202
sbag9
(g10
g11
Ntp5713
Rp5714
(dp5715
g15
I600
sg16
g202
sbag9
(g10
g11
Ntp5716
Rp5717
(dp5718
g15
I593
sg16
g202
sbag9
(g10
g11
Ntp5719
Rp5720
(dp5721
g15
I595
sg16
g202
sbag9
(g10
g11
Ntp5722
Rp5723
(dp5724
g15
I600
sg16
g202
sbag9
(g10
g11
Ntp5725
Rp5726
(dp5727
g15
I600
sg16
g202
sbag9
(g10
g11
Ntp5728
Rp5729
(dp5730
g15
I591
sg16
g202
sbag9
(g10
g11
Ntp5731
Rp5732
(dp5733
g15
I593
sg16
g202
sbag9
(g10
g11
Ntp5734
Rp5735
(dp5736
g15
I591
sg16
g202
sbag9
(g10
g11
Ntp5737
Rp5738
(dp5739
g15
I593
sg16
g202
sbag9
(g10
g11
Ntp5740
Rp5741
(dp5742
g15
I593
sg16
g202
sbasg240
(lp5743
g9
(g10
g11
Ntp5744
Rp5745
(dp5746
g15
I774
sg16
g240
sbag9
(g10
g11
Ntp5747
Rp5748
(dp5749
g15
I774
sg16
g240
sbag9
(g10
g11
Ntp5750
Rp5751
(dp5752
g15
I774
sg16
g240
sbag9
(g10
g11
Ntp5753
Rp5754
(dp5755
g15
I775
sg16
g240
sbag9
(g10
g11
Ntp5756
Rp5757
(dp5758
g15
I775
sg16
g240
sbag9
(g10
g11
Ntp5759
Rp5760
(dp5761
g15
I774
sg16
g240
sbag9
(g10
g11
Ntp5762
Rp5763
(dp5764
g15
I771
sg16
g240
sbag9
(g10
g11
Ntp5765
Rp5766
(dp5767
g15
I771
sg16
g240
sbag9
(g10
g11
Ntp5768
Rp5769
(dp5770
g15
I771
sg16
g240
sbag9
(g10
g11
Ntp5771
Rp5772
(dp5773
g15
I771
sg16
g240
sbag9
(g10
g11
Ntp5774
Rp5775
(dp5776
g15
I771
sg16
g240
sbag9
(g10
g11
Ntp5777
Rp5778
(dp5779
g15
I774
sg16
g240
sbass(F0.0
F10.0
tp5780
g0
(g1
tp5781
Rp5782
g7
(lp5783
g9
(g10
g11
Ntp5784
Rp5785
(dp5786
g15
I350
sg16
g7
sbag9
(g10
g11
Ntp5787
Rp5788
(dp5789
g15
I359
sg16
g7
sbag9
(g10
g11
Ntp5790
Rp5791
(dp5792
g15
I352
sg16
g7
sbag9
(g10
g11
Ntp5793
Rp5794
(dp5795
g15
I353
sg16
g7
sbag9
(g10
g11
Ntp5796
Rp5797
(dp5798
g15
I348
sg16
g7
sbag9
(g10
g11
Ntp5799
Rp5800
(dp5801
g15
I355
sg16
g7
sbag9
(g10
g11
Ntp5802
Rp5803
(dp5804
g15
I353
sg16
g7
sbag9
(g10
g11
Ntp5805
Rp5806
(dp5807
g15
I352
sg16
g7
sbag9
(g10
g11
Ntp5808
Rp5809
(dp5810
g15
I348
sg16
g7
sbag9
(g10
g11
Ntp5811
Rp5812
(dp5813
g15
I348
sg16
g7
sbag9
(g10
g11
Ntp5814
Rp5815
(dp5816
g15
I353
sg16
g7
sbag9
(g10
g11
Ntp5817
Rp5818
(dp5819
g15
I355
sg16
g7
sbasg50
(lp5820
g9
(g10
g11
Ntp5821
Rp5822
(dp5823
g15
I536
sg16
g50
sbag9
(g10
g11
Ntp5824
Rp5825
(dp5826
g15
I536
sg16
g50
sbag9
(g10
g11
Ntp5827
Rp5828
(dp5829
g15
I536
sg16
g50
sbag9
(g10
g11
Ntp5830
Rp5831
(dp5832
g15
I536
sg16
g50
sbag9
(g10
g11
Ntp5833
Rp5834
(dp5835
g15
I536
sg16
g50
sbag9
(g10
g11
Ntp5836
Rp5837
(dp5838
g15
I543
sg16
g50
sbag9
(g10
g11
Ntp5839
Rp5840
(dp5841
g15
I536
sg16
g50
sbag9
(g10
g11
Ntp5842
Rp5843
(dp5844
g15
I536
sg16
g50
sbag9
(g10
g11
Ntp5845
Rp5846
(dp5847
g15
I545
sg16
g50
sbag9
(g10
g11
Ntp5848
Rp5849
(dp5850
g15
I536
sg16
g50
sbag9
(g10
g11
Ntp5851
Rp5852
(dp5853
g15
I536
sg16
g50
sbag9
(g10
g11
Ntp5854
Rp5855
(dp5856
g15
I548
sg16
g50
sbasg88
(lp5857
g9
(g10
g11
Ntp5858
Rp5859
(dp5860
g15
I444
sg16
g88
sbag9
(g10
g11
Ntp5861
Rp5862
(dp5863
g15
I448
sg16
g88
sbag9
(g10
g11
Ntp5864
Rp5865
(dp5866
g15
I444
sg16
g88
sbag9
(g10
g11
Ntp5867
Rp5868
(dp5869
g15
I444
sg16
g88
sbag9
(g10
g11
Ntp5870
Rp5871
(dp5872
g15
I448
sg16
g88
sbag9
(g10
g11
Ntp5873
Rp5874
(dp5875
g15
I440
sg16
g88
sbag9
(g10
g11
Ntp5876
Rp5877
(dp5878
g15
I444
sg16
g88
sbag9
(g10
g11
Ntp5879
Rp5880
(dp5881
g15
I444
sg16
g88
sbag9
(g10
g11
Ntp5882
Rp5883
(dp5884
g15
I444
sg16
g88
sbag9
(g10
g11
Ntp5885
Rp5886
(dp5887
g15
I448
sg16
g88
sbag9
(g10
g11
Ntp5888
Rp5889
(dp5890
g15
I444
sg16
g88
sbag9
(g10
g11
Ntp5891
Rp5892
(dp5893
g15
I440
sg16
g88
sbasg126
(lp5894
g9
(g10
g11
Ntp5895
Rp5896
(dp5897
g15
I58330
sg16
g126
sbag9
(g10
g11
Ntp5898
Rp5899
(dp5900
g15
I1590
sg16
g126
sbag9
(g10
g11
Ntp5901
Rp5902
(dp5903
g15
I10387
sg16
g126
sbag9
(g10
g11
Ntp5904
Rp5905
(dp5906
g15
I33652
sg16
g126
sbag9
(g10
g11
Ntp5907
Rp5908
(dp5909
g15
I42449
sg16
g126
sbag9
(g10
g11
Ntp5910
Rp5911
(dp5912
g15
I51245
sg16
g126
sbag9
(g10
g11
Ntp5913
Rp5914
(dp5915
g15
I8977
sg16
g126
sbag9
(g10
g11
Ntp5916
Rp5917
(dp5918
g15
I17773
sg16
g126
sbag9
(g10
g11
Ntp5919
Rp5920
(dp5921
g15
I26570
sg16
g126
sbag9
(g10
g11
Ntp5922
Rp5923
(dp5924
g15
I49835
sg16
g126
sbag9
(g10
g11
Ntp5925
Rp5926
(dp5927
g15
I58632
sg16
g126
sbag9
(g10
g11
Ntp5928
Rp5929
(dp5930
g15
I1892
sg16
g126
sbasg164
(lp5931
g9
(g10
g11
Ntp5932
Rp5933
(dp5934
g15
I487
sg16
g164
sbag9
(g10
g11
Ntp5935
Rp5936
(dp5937
g15
I480
sg16
g164
sbag9
(g10
g11
Ntp5938
Rp5939
(dp5940
g15
I472
sg16
g164
sbag9
(g10
g11
Ntp5941
Rp5942
(dp5943
g15
I480
sg16
g164
sbag9
(g10
g11
Ntp5944
Rp5945
(dp5946
g15
I486
sg16
g164
sbag9
(g10
g11
Ntp5947
Rp5948
(dp5949
g15
I483
sg16
g164
sbag9
(g10
g11
Ntp5950
Rp5951
(dp5952
g15
I483
sg16
g164
sbag9
(g10
g11
Ntp5953
Rp5954
(dp5955
g15
I480
sg16
g164
sbag9
(g10
g11
Ntp5956
Rp5957
(dp5958
g15
I480
sg16
g164
sbag9
(g10
g11
Ntp5959
Rp5960
(dp5961
g15
I480
sg16
g164
sbag9
(g10
g11
Ntp5962
Rp5963
(dp5964
g15
I486
sg16
g164
sbag9
(g10
g11
Ntp5965
Rp5966
(dp5967
g15
I480
sg16
g164
sbasg202
(lp5968
g9
(g10
g11
Ntp5969
Rp5970
(dp5971
g15
I639
sg16
g202
sbag9
(g10
g11
Ntp5972
Rp5973
(dp5974
g15
I639
sg16
g202
sbag9
(g10
g11
Ntp5975
Rp5976
(dp5977
g15
I632
sg16
g202
sbag9
(g10
g11
Ntp5978
Rp5979
(dp5980
g15
I639
sg16
g202
sbag9
(g10
g11
Ntp5981
Rp5982
(dp5983
g15
I639
sg16
g202
sbag9
(g10
g11
Ntp5984
Rp5985
(dp5986
g15
I639
sg16
g202
sbag9
(g10
g11
Ntp5987
Rp5988
(dp5989
g15
I647
sg16
g202
sbag9
(g10
g11
Ntp5990
Rp5991
(dp5992
g15
I636
sg16
g202
sbag9
(g10
g11
Ntp5993
Rp5994
(dp5995
g15
I638
sg16
g202
sbag9
(g10
g11
Ntp5996
Rp5997
(dp5998
g15
I639
sg16
g202
sbag9
(g10
g11
Ntp5999
Rp6000
(dp6001
g15
I639
sg16
g202
sbag9
(g10
g11
Ntp6002
Rp6003
(dp6004
g15
I639
sg16
g202
sbasg240
(lp6005
g9
(g10
g11
Ntp6006
Rp6007
(dp6008
g15
I768
sg16
g240
sbag9
(g10
g11
Ntp6009
Rp6010
(dp6011
g15
I768
sg16
g240
sbag9
(g10
g11
Ntp6012
Rp6013
(dp6014
g15
I792
sg16
g240
sbag9
(g10
g11
Ntp6015
Rp6016
(dp6017
g15
I774
sg16
g240
sbag9
(g10
g11
Ntp6018
Rp6019
(dp6020
g15
I769
sg16
g240
sbag9
(g10
g11
Ntp6021
Rp6022
(dp6023
g15
I768
sg16
g240
sbag9
(g10
g11
Ntp6024
Rp6025
(dp6026
g15
I768
sg16
g240
sbag9
(g10
g11
Ntp6027
Rp6028
(dp6029
g15
I775
sg16
g240
sbag9
(g10
g11
Ntp6030
Rp6031
(dp6032
g15
I769
sg16
g240
sbag9
(g10
g11
Ntp6033
Rp6034
(dp6035
g15
I771
sg16
g240
sbag9
(g10
g11
Ntp6036
Rp6037
(dp6038
g15
I768
sg16
g240
sbag9
(g10
g11
Ntp6039
Rp6040
(dp6041
g15
I771
sg16
g240
sbass(F-2.5
F5.0
tp6042
g0
(g1
tp6043
Rp6044
g7
(lp6045
g9
(g10
g11
Ntp6046
Rp6047
(dp6048
g15
I353
sg16
g7
sbag9
(g10
g11
Ntp6049
Rp6050
(dp6051
g15
I352
sg16
g7
sbag9
(g10
g11
Ntp6052
Rp6053
(dp6054
g15
I352
sg16
g7
sbag9
(g10
g11
Ntp6055
Rp6056
(dp6057
g15
I352
sg16
g7
sbag9
(g10
g11
Ntp6058
Rp6059
(dp6060
g15
I353
sg16
g7
sbag9
(g10
g11
Ntp6061
Rp6062
(dp6063
g15
I353
sg16
g7
sbag9
(g10
g11
Ntp6064
Rp6065
(dp6066
g15
I353
sg16
g7
sbag9
(g10
g11
Ntp6067
Rp6068
(dp6069
g15
I352
sg16
g7
sbag9
(g10
g11
Ntp6070
Rp6071
(dp6072
g15
I352
sg16
g7
sbag9
(g10
g11
Ntp6073
Rp6074
(dp6075
g15
I352
sg16
g7
sbag9
(g10
g11
Ntp6076
Rp6077
(dp6078
g15
I352
sg16
g7
sbag9
(g10
g11
Ntp6079
Rp6080
(dp6081
g15
I353
sg16
g7
sbasg50
(lp6082
g9
(g10
g11
Ntp6083
Rp6084
(dp6085
g15
I536
sg16
g50
sbag9
(g10
g11
Ntp6086
Rp6087
(dp6088
g15
I536
sg16
g50
sbag9
(g10
g11
Ntp6089
Rp6090
(dp6091
g15
I543
sg16
g50
sbag9
(g10
g11
Ntp6092
Rp6093
(dp6094
g15
I536
sg16
g50
sbag9
(g10
g11
Ntp6095
Rp6096
(dp6097
g15
I536
sg16
g50
sbag9
(g10
g11
Ntp6098
Rp6099
(dp6100
g15
I547
sg16
g50
sbag9
(g10
g11
Ntp6101
Rp6102
(dp6103
g15
I536
sg16
g50
sbag9
(g10
g11
Ntp6104
Rp6105
(dp6106
g15
I536
sg16
g50
sbag9
(g10
g11
Ntp6107
Rp6108
(dp6109
g15
I548
sg16
g50
sbag9
(g10
g11
Ntp6110
Rp6111
(dp6112
g15
I536
sg16
g50
sbag9
(g10
g11
Ntp6113
Rp6114
(dp6115
g15
I536
sg16
g50
sbag9
(g10
g11
Ntp6116
Rp6117
(dp6118
g15
I543
sg16
g50
sbasg88
(lp6119
g9
(g10
g11
Ntp6120
Rp6121
(dp6122
g15
I444
sg16
g88
sbag9
(g10
g11
Ntp6123
Rp6124
(dp6125
g15
I448
sg16
g88
sbag9
(g10
g11
Ntp6126
Rp6127
(dp6128
g15
I444
sg16
g88
sbag9
(g10
g11
Ntp6129
Rp6130
(dp6131
g15
I448
sg16
g88
sbag9
(g10
g11
Ntp6132
Rp6133
(dp6134
g15
I444
sg16
g88
sbag9
(g10
g11
Ntp6135
Rp6136
(dp6137
g15
I444
sg16
g88
sbag9
(g10
g11
Ntp6138
Rp6139
(dp6140
g15
I448
sg16
g88
sbag9
(g10
g11
Ntp6141
Rp6142
(dp6143
g15
I444
sg16
g88
sbag9
(g10
g11
Ntp6144
Rp6145
(dp6146
g15
I440
sg16
g88
sbag9
(g10
g11
Ntp6147
Rp6148
(dp6149
g15
I448
sg16
g88
sbag9
(g10
g11
Ntp6150
Rp6151
(dp6152
g15
I444
sg16
g88
sbag9
(g10
g11
Ntp6153
Rp6154
(dp6155
g15
I440
sg16
g88
sbasg126
(lp6156
g9
(g10
g11
Ntp6157
Rp6158
(dp6159
g15
I25029
sg16
g126
sbag9
(g10
g11
Ntp6160
Rp6161
(dp6162
g15
I33825
sg16
g126
sbag9
(g10
g11
Ntp6163
Rp6164
(dp6165
g15
I42622
sg16
g126
sbag9
(g10
g11
Ntp6166
Rp6167
(dp6168
g15
I351
sg16
g126
sbag9
(g10
g11
Ntp6169
Rp6170
(dp6171
g15
I9148
sg16
g126
sbag9
(g10
g11
Ntp6172
Rp6173
(dp6174
g15
I17944
sg16
g126
sbag9
(g10
g11
Ntp6175
Rp6176
(dp6177
g15
I41212
sg16
g126
sbag9
(g10
g11
Ntp6178
Rp6179
(dp6180
g15
I50008
sg16
g126
sbag9
(g10
g11
Ntp6181
Rp6182
(dp6183
g15
I58805
sg16
g126
sbag9
(g10
g11
Ntp6184
Rp6185
(dp6186
g15
I16534
sg16
g126
sbag9
(g10
g11
Ntp6187
Rp6188
(dp6189
g15
I25331
sg16
g126
sbag9
(g10
g11
Ntp6190
Rp6191
(dp6192
g15
I34127
sg16
g126
sbasg164
(lp6193
g9
(g10
g11
Ntp6194
Rp6195
(dp6196
g15
I487
sg16
g164
sbag9
(g10
g11
Ntp6197
Rp6198
(dp6199
g15
I494
sg16
g164
sbag9
(g10
g11
Ntp6200
Rp6201
(dp6202
g15
I494
sg16
g164
sbag9
(g10
g11
Ntp6203
Rp6204
(dp6205
g15
I496
sg16
g164
sbag9
(g10
g11
Ntp6206
Rp6207
(dp6208
g15
I494
sg16
g164
sbag9
(g10
g11
Ntp6209
Rp6210
(dp6211
g15
I492
sg16
g164
sbag9
(g10
g11
Ntp6212
Rp6213
(dp6214
g15
I494
sg16
g164
sbag9
(g10
g11
Ntp6215
Rp6216
(dp6217
g15
I487
sg16
g164
sbag9
(g10
g11
Ntp6218
Rp6219
(dp6220
g15
I496
sg16
g164
sbag9
(g10
g11
Ntp6221
Rp6222
(dp6223
g15
I496
sg16
g164
sbag9
(g10
g11
Ntp6224
Rp6225
(dp6226
g15
I496
sg16
g164
sbag9
(g10
g11
Ntp6227
Rp6228
(dp6229
g15
I496
sg16
g164
sbasg202
(lp6230
g9
(g10
g11
Ntp6231
Rp6232
(dp6233
g15
I639
sg16
g202
sbag9
(g10
g11
Ntp6234
Rp6235
(dp6236
g15
I638
sg16
g202
sbag9
(g10
g11
Ntp6237
Rp6238
(dp6239
g15
I639
sg16
g202
sbag9
(g10
g11
Ntp6240
Rp6241
(dp6242
g15
I638
sg16
g202
sbag9
(g10
g11
Ntp6243
Rp6244
(dp6245
g15
I636
sg16
g202
sbag9
(g10
g11
Ntp6246
Rp6247
(dp6248
g15
I643
sg16
g202
sbag9
(g10
g11
Ntp6249
Rp6250
(dp6251
g15
I639
sg16
g202
sbag9
(g10
g11
Ntp6252
Rp6253
(dp6254
g15
I639
sg16
g202
sbag9
(g10
g11
Ntp6255
Rp6256
(dp6257
g15
I639
sg16
g202
sbag9
(g10
g11
Ntp6258
Rp6259
(dp6260
g15
I639
sg16
g202
sbag9
(g10
g11
Ntp6261
Rp6262
(dp6263
g15
I639
sg16
g202
sbag9
(g10
g11
Ntp6264
Rp6265
(dp6266
g15
I639
sg16
g202
sbasg240
(lp6267
g9
(g10
g11
Ntp6268
Rp6269
(dp6270
g15
I774
sg16
g240
sbag9
(g10
g11
Ntp6271
Rp6272
(dp6273
g15
I771
sg16
g240
sbag9
(g10
g11
Ntp6274
Rp6275
(dp6276
g15
I768
sg16
g240
sbag9
(g10
g11
Ntp6277
Rp6278
(dp6279
g15
I769
sg16
g240
sbag9
(g10
g11
Ntp6280
Rp6281
(dp6282
g15
I768
sg16
g240
sbag9
(g10
g11
Ntp6283
Rp6284
(dp6285
g15
I774
sg16
g240
sbag9
(g10
g11
Ntp6286
Rp6287
(dp6288
g15
I768
sg16
g240
sbag9
(g10
g11
Ntp6289
Rp6290
(dp6291
g15
I774
sg16
g240
sbag9
(g10
g11
Ntp6292
Rp6293
(dp6294
g15
I771
sg16
g240
sbag9
(g10
g11
Ntp6295
Rp6296
(dp6297
g15
I771
sg16
g240
sbag9
(g10
g11
Ntp6298
Rp6299
(dp6300
g15
I771
sg16
g240
sbag9
(g10
g11
Ntp6301
Rp6302
(dp6303
g15
I769
sg16
g240
sbass(F-2.5
F10.0
tp6304
g0
(g1
tp6305
Rp6306
g7
(lp6307
g9
(g10
g11
Ntp6308
Rp6309
(dp6310
g15
I352
sg16
g7
sbag9
(g10
g11
Ntp6311
Rp6312
(dp6313
g15
I352
sg16
g7
sbag9
(g10
g11
Ntp6314
Rp6315
(dp6316
g15
I352
sg16
g7
sbag9
(g10
g11
Ntp6317
Rp6318
(dp6319
g15
I352
sg16
g7
sbag9
(g10
g11
Ntp6320
Rp6321
(dp6322
g15
I352
sg16
g7
sbag9
(g10
g11
Ntp6323
Rp6324
(dp6325
g15
I352
sg16
g7
sbag9
(g10
g11
Ntp6326
Rp6327
(dp6328
g15
I352
sg16
g7
sbag9
(g10
g11
Ntp6329
Rp6330
(dp6331
g15
I352
sg16
g7
sbag9
(g10
g11
Ntp6332
Rp6333
(dp6334
g15
I352
sg16
g7
sbag9
(g10
g11
Ntp6335
Rp6336
(dp6337
g15
I352
sg16
g7
sbag9
(g10
g11
Ntp6338
Rp6339
(dp6340
g15
I352
sg16
g7
sbag9
(g10
g11
Ntp6341
Rp6342
(dp6343
g15
I352
sg16
g7
sbasg50
(lp6344
g9
(g10
g11
Ntp6345
Rp6346
(dp6347
g15
I537
sg16
g50
sbag9
(g10
g11
Ntp6348
Rp6349
(dp6350
g15
I543
sg16
g50
sbag9
(g10
g11
Ntp6351
Rp6352
(dp6353
g15
I536
sg16
g50
sbag9
(g10
g11
Ntp6354
Rp6355
(dp6356
g15
I543
sg16
g50
sbag9
(g10
g11
Ntp6357
Rp6358
(dp6359
g15
I540
sg16
g50
sbag9
(g10
g11
Ntp6360
Rp6361
(dp6362
g15
I536
sg16
g50
sbag9
(g10
g11
Ntp6363
Rp6364
(dp6365
g15
I547
sg16
g50
sbag9
(g10
g11
Ntp6366
Rp6367
(dp6368
g15
I536
sg16
g50
sbag9
(g10
g11
Ntp6369
Rp6370
(dp6371
g15
I536
sg16
g50
sbag9
(g10
g11
Ntp6372
Rp6373
(dp6374
g15
I547
sg16
g50
sbag9
(g10
g11
Ntp6375
Rp6376
(dp6377
g15
I536
sg16
g50
sbag9
(g10
g11
Ntp6378
Rp6379
(dp6380
g15
I536
sg16
g50
sbasg88
(lp6381
g9
(g10
g11
Ntp6382
Rp6383
(dp6384
g15
I444
sg16
g88
sbag9
(g10
g11
Ntp6385
Rp6386
(dp6387
g15
I444
sg16
g88
sbag9
(g10
g11
Ntp6388
Rp6389
(dp6390
g15
I448
sg16
g88
sbag9
(g10
g11
Ntp6391
Rp6392
(dp6393
g15
I444
sg16
g88
sbag9
(g10
g11
Ntp6394
Rp6395
(dp6396
g15
I444
sg16
g88
sbag9
(g10
g11
Ntp6397
Rp6398
(dp6399
g15
I444
sg16
g88
sbag9
(g10
g11
Ntp6400
Rp6401
(dp6402
g15
I444
sg16
g88
sbag9
(g10
g11
Ntp6403
Rp6404
(dp6405
g15
I444
sg16
g88
sbag9
(g10
g11
Ntp6406
Rp6407
(dp6408
g15
I448
sg16
g88
sbag9
(g10
g11
Ntp6409
Rp6410
(dp6411
g15
I440
sg16
g88
sbag9
(g10
g11
Ntp6412
Rp6413
(dp6414
g15
I448
sg16
g88
sbag9
(g10
g11
Ntp6415
Rp6416
(dp6417
g15
I448
sg16
g88
sbasg126
(lp6418
g9
(g10
g11
Ntp6419
Rp6420
(dp6421
g15
I61503
sg16
g126
sbag9
(g10
g11
Ntp6422
Rp6423
(dp6424
g15
I4764
sg16
g126
sbag9
(g10
g11
Ntp6425
Rp6426
(dp6427
g15
I13560
sg16
g126
sbag9
(g10
g11
Ntp6428
Rp6429
(dp6430
g15
I36828
sg16
g126
sbag9
(g10
g11
Ntp6431
Rp6432
(dp6433
g15
I45624
sg16
g126
sbag9
(g10
g11
Ntp6434
Rp6435
(dp6436
g15
I54421
sg16
g126
sbag9
(g10
g11
Ntp6437
Rp6438
(dp6439
g15
I12150
sg16
g126
sbag9
(g10
g11
Ntp6440
Rp6441
(dp6442
g15
I20947
sg16
g126
sbag9
(g10
g11
Ntp6443
Rp6444
(dp6445
g15
I29743
sg16
g126
sbag9
(g10
g11
Ntp6446
Rp6447
(dp6448
g15
I53011
sg16
g126
sbag9
(g10
g11
Ntp6449
Rp6450
(dp6451
g15
I61807
sg16
g126
sbag9
(g10
g11
Ntp6452
Rp6453
(dp6454
g15
I5068
sg16
g126
sbasg164
(lp6455
g9
(g10
g11
Ntp6456
Rp6457
(dp6458
g15
I504
sg16
g164
sbag9
(g10
g11
Ntp6459
Rp6460
(dp6461
g15
I504
sg16
g164
sbag9
(g10
g11
Ntp6462
Rp6463
(dp6464
g15
I499
sg16
g164
sbag9
(g10
g11
Ntp6465
Rp6466
(dp6467
g15
I504
sg16
g164
sbag9
(g10
g11
Ntp6468
Rp6469
(dp6470
g15
I504
sg16
g164
sbag9
(g10
g11
Ntp6471
Rp6472
(dp6473
g15
I504
sg16
g164
sbag9
(g10
g11
Ntp6474
Rp6475
(dp6476
g15
I499
sg16
g164
sbag9
(g10
g11
Ntp6477
Rp6478
(dp6479
g15
I505
sg16
g164
sbag9
(g10
g11
Ntp6480
Rp6481
(dp6482
g15
I504
sg16
g164
sbag9
(g10
g11
Ntp6483
Rp6484
(dp6485
g15
I504
sg16
g164
sbag9
(g10
g11
Ntp6486
Rp6487
(dp6488
g15
I504
sg16
g164
sbag9
(g10
g11
Ntp6489
Rp6490
(dp6491
g15
I504
sg16
g164
sbasg202
(lp6492
g9
(g10
g11
Ntp6493
Rp6494
(dp6495
g15
I639
sg16
g202
sbag9
(g10
g11
Ntp6496
Rp6497
(dp6498
g15
I638
sg16
g202
sbag9
(g10
g11
Ntp6499
Rp6500
(dp6501
g15
I638
sg16
g202
sbag9
(g10
g11
Ntp6502
Rp6503
(dp6504
g15
I639
sg16
g202
sbag9
(g10
g11
Ntp6505
Rp6506
(dp6507
g15
I638
sg16
g202
sbag9
(g10
g11
Ntp6508
Rp6509
(dp6510
g15
I646
sg16
g202
sbag9
(g10
g11
Ntp6511
Rp6512
(dp6513
g15
I636
sg16
g202
sbag9
(g10
g11
Ntp6514
Rp6515
(dp6516
g15
I638
sg16
g202
sbag9
(g10
g11
Ntp6517
Rp6518
(dp6519
g15
I639
sg16
g202
sbag9
(g10
g11
Ntp6520
Rp6521
(dp6522
g15
I639
sg16
g202
sbag9
(g10
g11
Ntp6523
Rp6524
(dp6525
g15
I639
sg16
g202
sbag9
(g10
g11
Ntp6526
Rp6527
(dp6528
g15
I639
sg16
g202
sbasg240
(lp6529
g9
(g10
g11
Ntp6530
Rp6531
(dp6532
g15
I771
sg16
g240
sbag9
(g10
g11
Ntp6533
Rp6534
(dp6535
g15
I771
sg16
g240
sbag9
(g10
g11
Ntp6536
Rp6537
(dp6538
g15
I768
sg16
g240
sbag9
(g10
g11
Ntp6539
Rp6540
(dp6541
g15
I769
sg16
g240
sbag9
(g10
g11
Ntp6542
Rp6543
(dp6544
g15
I769
sg16
g240
sbag9
(g10
g11
Ntp6545
Rp6546
(dp6547
g15
I771
sg16
g240
sbag9
(g10
g11
Ntp6548
Rp6549
(dp6550
g15
I771
sg16
g240
sbag9
(g10
g11
Ntp6551
Rp6552
(dp6553
g15
I768
sg16
g240
sbag9
(g10
g11
Ntp6554
Rp6555
(dp6556
g15
I768
sg16
g240
sbag9
(g10
g11
Ntp6557
Rp6558
(dp6559
g15
I771
sg16
g240
sbag9
(g10
g11
Ntp6560
Rp6561
(dp6562
g15
I771
sg16
g240
sbag9
(g10
g11
Ntp6563
Rp6564
(dp6565
g15
I771
sg16
g240
sbass.