(lp0
(lp1
accgkit.cgtypes
quat
p2
(F0.99868515059687801
F-0.051263729646711102
F1.9302621300570282e-33
F-9.9082714830983429e-35
tp3
Rp4
ag2
(F0.43564894060827025
F-0.00019491416867620324
F-0.9001165482148662
F0.00040272212865255763
tp5
Rp6
ag2
(F0.43733267412342253
F-0.00019566748972851651
F0.89929968974052832
F-0.00040235665710973835
tp7
Rp8
ag2
(F0.70600475113271466
F0.041821513265534342
F0.70573405360389985
F0.041805477990595877
tp9
Rp10
ag2
(F0.70628931806201922
F-0.038681827575880991
F0.70580795580143374
F-0.038655464481481383
tp11
Rp12
ag2
(F0.92032607096684216
F0.38131326119020986
F-0.080539438286380105
F-0.033369429418797482
tp13
Rp14
ag2
(F0.92397024795700577
F-0.38246435007018365
F-3.9370905827809968e-05
F1.6297026817045763e-05
tp15
Rp16
ag2
(F0.76424985471010409
F-0.00034193386281105339
F-0.64492011861852994
F0.00028854441516046417
tp17
Rp18
ag2
(F0.77632960968504272
F-0.00034733847918740659
F0.63032700794874974
F-0.00028201529556561662
tp19
Rp20
ag2
(F0.66647031189826489
F0.23260212768044497
F0.66875833111156346
F0.2334006600796919
tp21
Rp22
ag2
(F0.63893294467669504
F-0.30331359197519236
F0.63863342833296766
F-0.30317140588379088
tp23
Rp24
ag2
(F0.64421514657008394
F-0.7451619060789979
F0.11274859839384406
F-0.13041599678959459
tp25
Rp26
ag2
(F0.92396380798825495
F-0.38247988089047558
F-0.00013779721053280109
F5.7041910317222628e-05
tp27
Rp28
ag2
(F0.9940580849283297
F-0.00040239521756437884
F0.1088501719116573
F-4.4062604864251316e-05
tp29
Rp30
ag2
(F0.99470665591396712
F-0.00040265775942871095
F-0.10275458538200814
F4.1595108341693978e-05
tp31
Rp32
ag2
(F0.63943165454327222
F0.26547363334396479
F0.6664099816484238
F0.27667425887956204
tp33
Rp34
ag2
(F0.65474553189926898
F-0.26735507020110577
F0.65452237358808529
F-0.26726394700431294
tp35
Rp36
ag2
(F0.2209777335096966
F-0.27362396748894829
F0.58814931876183874
F-0.72827133991975113
tp37
Rp38
ag2
(F0.94686535048055864
F-0.32163023498938792
F6.0683084594140743e-10
F-2.0612766902906259e-10
tp39
Rp40
ag2
(F0.89845976797825622
F-0.00038283891838320405
F0.43905564995605961
F-0.00018708415905750432
tp41
Rp42
ag2
(F0.90087811275281049
F-0.00038386938911852853
F-0.43407193458782201
F0.00018496056903254503
tp43
Rp44
a(lp45
ag2
(F0.67331268061577665
F-0.21692142378932028
F0.67276769299682215
F-0.21674584490352974
tp46
Rp47
a.