(lp0
(((F-29.9951171875
F0.0
tp1
(F29.98291015625
F-0.0048828125
tp2
I1000
tp3
ccollections
defaultdict
p4
(c__builtin__
list
p5
tp6
Rp7
S'a'
p8
(F333.71237693389594
F4.2672140146976192
tp9
sS'c'
p10
(F493.97398030942333
F4.0303033979116956
tp11
sS'b'
p12
(F415.69549929676509
F1.0969691000201156
tp13
sS't'
p14
(F33008.327707454293
F18877.481132840181
tp15
sS'y'
p16
(F597.96343178621657
F22.851229526989073
tp17
sS'x'
p18
(F531.41631504922645
F2.6829069675755473
tp19
sS'z'
p20
(F746.76652601969056
F6.4865156377303981
tp21
sS'T'
p22
(F7435.9655414908575
F94.810371522290922
tp23
sg4
(g5
tp24
Rp25
g8
(lp26
I333
aI334
aI334
aI334
aI334
aI333
aI335
aI335
aI334
aI334
aI332
aI333
aI333
aI332
aI379
aI474
aI478
aI400
aI383
aI411
aI359
aI515
aI368
aI446
aI355
aI449
aI385
aI428
aI369
aI519
aI364
aI381
aI421
aI439
aI355
aI472
aI367
aI396
aI410
aI437
aI396
aI444
aI362
aI415
aI432
aI369
aI444
aI416
aI391
aI405
aI433
aI395
aI439
aI388
aI415
aI396
aI428
aI412
aI424
aI357
aI436
aI415
aI440
aI364
aI466
aI371
aI412
aI433
aI417
aI430
aI336
aI437
aI446
aI393
aI437
aI393
aI374
aI432
aI439
aI398
aI407
aI354
aI413
aI497
aI404
aI366
aI412
aI390
aI447
aI423
aI391
aI408
aI376
aI435
aI483
aI353
aI408
aI397
aI425
aI377
aI478
aI332
aI467
aI369
aI455
aI368
aI463
aI356
aI454
aI406
aI430
aI391
aI406
aI428
aI415
aI384
aI441
aI398
aI366
aI459
aI353
aI484
aI345
aI450
aI371
aI455
aI379
aI425
aI419
aI381
aI457
aI376
aI388
aI463
aI332
aI491
aI374
aI403
aI399
aI444
aI397
aI391
aI461
aI364
aI327
aI313
aI315
aI381
aI336
aI294
aI335
aI363
aI336
aI312
aI333
aI351
aI332
aI334
aI328
aI333
aI345
aI332
aI323
aI336
aI341
aI332
aI327
aI335
aI335
aI335
aI333
aI329
aI332
aI340
aI335
aI327
aI336
aI340
aI334
aI331
aI335
aI337
aI334
aI332
aI331
aI336
aI337
aI331
aI330
aI335
aI336
aI331
aI330
aI335
aI336
aI333
aI332
aI334
aI335
aI335
aI331
aI335
aI336
aI334
aI332
aI333
aI335
aI334
aI333
aI333
aI333
aI334
aI334
aI332
aI335
aI335
aI334
aI333
aI334
aI334
aI335
aI334
aI335
aI334
aI334
aI334
aI334
aI334
aI334
aI333
aI334
aI334
aI333
aI333
aI333
aI334
aI335
aI334
aI334
aI334
aI335
aI334
aI333
aI333
aI334
aI333
aI335
aI334
aI334
aI335
aI333
aI334
aI332
aI334
aI335
aI333
aI332
aI335
aI335
aI334
aI335
aI335
aI335
aI334
aI333
aI334
aI334
aI334
aI334
aI332
aI335
aI333
aI333
aI333
aI334
aI334
aI333
aI333
aI334
aI334
aI334
aI334
aI335
aI333
aI334
aI333
aI334
aI333
aI335
aI334
aI334
aI334
aI334
aI333
aI334
aI334
aI334
aI334
aI334
aI334
aI334
aI333
aI334
aI335
aI334
aI335
aI333
aI334
aI335
aI334
aI334
aI334
aI334
aI333
aI333
aI334
aI334
aI333
aI334
aI334
aI334
aI334
aI334
aI335
aI335
aI334
aI335
aI335
aI333
aI335
aI334
aI334
aI333
aI334
aI332
aI332
aI332
aI333
aI335
aI335
aI334
aI334
aI334
aI333
aI335
aI334
aI332
aI334
aI332
aI335
aI335
aI334
aI334
aI334
aI334
aI334
aI334
aI335
aI334
aI333
aI332
aI334
aI334
aI334
aI335
aI334
aI335
aI335
aI335
aI336
aI333
aI334
aI334
aI334
aI334
aI333
aI334
aI333
aI333
aI334
aI335
aI334
aI336
aI334
aI334
aI334
aI334
aI333
aI333
aI335
aI332
aI332
aI334
aI333
aI334
aI334
aI333
aI335
aI333
aI334
aI333
aI333
aI334
aI334
aI335
aI334
aI334
aI335
aI334
aI334
aI334
aI334
aI335
aI333
aI334
aI333
aI333
aI334
aI333
aI333
aI335
aI335
aI334
aI334
aI334
aI335
aI334
aI335
aI334
aI333
aI335
aI333
aI334
aI334
aI333
aI334
aI335
aI333
aI335
aI334
aI334
aI334
aI334
aI332
aI333
aI333
aI334
aI334
aI333
aI333
aI333
aI334
aI333
aI332
aI334
aI333
aI333
aI334
aI334
aI334
aI333
aI332
aI334
aI333
aI333
aI333
aI333
aI334
aI334
aI335
aI334
aI334
aI334
aI333
aI334
aI334
aI334
aI335
aI333
aI333
aI335
aI334
aI334
aI335
aI334
aI333
aI336
aI334
aI335
aI333
aI333
aI334
aI334
aI332
aI335
aI334
aI334
aI334
aI333
aI334
aI333
aI334
aI335
aI334
aI334
aI334
aI334
aI335
aI334
aI334
aI335
aI333
aI334
aI334
aI335
aI335
aI334
aI333
aI334
aI335
aI335
aI333
aI334
aI334
aI332
aI334
aI334
aI333
aI334
aI334
aI334
aI335
aI334
aI334
aI334
aI334
aI333
aI333
aI334
aI333
aI335
aI334
aI334
aI335
aI335
aI334
aI334
aI334
aI334
aI335
aI334
aI333
aI334
aI333
aI334
aI334
aI334
aI334
aI335
aI336
aI333
aI335
aI334
aI335
aI335
aI334
aI334
aI334
aI334
aI335
aI334
aI334
aI335
aI335
aI334
aI334
aI335
aI335
aI335
aI335
aI334
aI332
aI335
aI334
aI332
aI334
aI334
aI334
aI335
aI333
aI334
aI334
aI334
aI335
aI334
aI332
aI333
aI334
aI334
aI334
aI334
aI335
aI334
aI333
aI336
aI334
aI334
aI333
aI334
aI334
aI334
aI333
aI334
aI334
aI334
aI335
aI334
aI334
aI334
aI333
aI334
aI335
aI333
aI333
aI334
aI335
aI334
aI334
aI335
aI333
aI334
aI334
aI334
aI334
aI334
aI334
aI334
aI335
aI334
aI334
aI334
aI334
aI334
aI335
aI335
aI334
aI335
aI333
aI334
aI334
aI334
aI335
aI334
aI334
aI334
aI334
aI333
aI334
aI334
aI334
aI334
aI334
aI334
asg10
(lp27
I494
aI492
aI492
aI500
aI491
aI491
aI504
aI492
aI491
aI499
aI493
aI491
aI492
aI493
aI491
aI492
aI497
aI490
aI492
aI505
aI492
aI495
aI503
aI493
aI492
aI499
aI493
aI492
aI491
aI496
aI492
aI492
aI497
aI492
aI491
aI505
aI491
aI492
aI501
aI493
aI491
aI492
aI492
aI491
aI492
aI494
aI492
aI491
aI501
aI492
aI492
aI504
aI492
aI492
aI500
aI492
aI492
aI491
aI494
aI491
aI492
aI497
aI493
aI492
aI507
aI491
aI492
aI503
aI493
aI492
aI495
aI494
aI492
aI492
aI495
aI492
aI491
aI499
aI492
aI491
aI505
aI491
aI491
aI501
aI492
aI492
aI494
aI494
aI492
aI492
aI495
aI491
aI492
aI506
aI493
aI491
aI505
aI491
aI492
aI497
aI494
aI492
aI493
aI494
aI493
aI491
aI499
aI491
aI492
aI505
aI492
aI501
aI492
aI492
aI494
aI493
aI492
aI492
aI494
aI492
aI491
aI502
aI491
aI493
aI504
aI493
aI492
aI500
aI493
aI491
aI492
aI494
aI492
aI492
aI496
aI493
aI490
aI505
aI491
aI492
aI504
aI492
aI493
aI506
aI492
aI491
aI502
aI492
aI491
aI494
aI493
aI492
aI492
aI495
aI492
aI492
aI500
aI491
aI492
aI505
aI492
aI492
aI500
aI492
aI492
aI492
aI493
aI492
aI492
aI496
aI492
aI492
aI506
aI492
aI492
aI504
aI492
aI492
aI496
aI493
aI492
aI492
aI494
aI492
aI492
aI497
aI492
aI492
aI505
aI492
aI492
aI502
aI492
aI492
aI494
aI494
aI492
aI492
aI495
aI492
aI491
aI500
aI492
aI492
aI504
aI492
aI492
aI500
aI492
aI491
aI491
aI494
aI492
aI492
aI497
aI492
aI492
aI506
aI492
aI492
aI504
aI492
aI492
aI496
aI493
aI491
aI492
aI494
aI492
aI492
aI499
aI491
aI492
aI505
aI492
aI492
aI502
aI492
aI492
aI491
aI494
aI491
aI492
aI495
aI492
aI491
aI505
aI492
aI492
aI504
aI492
aI491
aI498
aI493
aI492
aI492
aI494
aI492
aI492
aI498
aI492
aI492
aI506
aI492
aI492
aI502
aI492
aI491
aI494
aI493
aI491
aI491
aI494
aI491
aI491
aI500
aI492
aI492
aI505
aI492
aI491
aI500
aI493
aI492
aI492
aI494
aI492
aI492
aI496
aI492
aI491
aI506
aI492
aI492
aI504
aI492
aI492
aI497
aI492
aI491
aI492
aI494
aI491
aI491
aI499
aI492
aI492
aI505
aI492
aI491
aI502
aI492
aI491
aI492
aI493
aI491
aI492
aI496
aI492
aI492
aI503
aI492
aI492
aI504
aI492
aI492
aI499
aI492
aI492
aI492
aI494
aI492
aI492
aI497
aI492
aI492
aI506
aI492
aI492
aI503
aI492
aI491
aI496
aI493
aI492
aI491
aI495
aI492
aI492
aI500
aI492
aI492
aI505
aI492
aI492
aI500
aI492
aI492
aI491
aI492
aI492
aI492
aI495
aI492
aI491
aI506
aI492
aI491
aI503
aI506
aI492
aI498
aI492
aI492
aI492
aI494
aI492
aI492
aI497
aI492
aI492
aI505
aI492
aI491
aI502
aI492
aI492
aI495
aI493
aI492
aI491
aI495
aI492
aI492
aI500
aI492
aI491
aI504
aI492
aI491
aI499
aI492
aI492
aI494
aI492
aI491
aI496
aI491
aI492
aI505
aI492
aI492
aI503
aI492
aI492
aI497
aI493
aI492
aI492
aI495
aI492
aI492
aI499
aI492
aI492
aI505
aI491
aI492
aI501
aI492
aI491
aI491
aI493
aI491
aI492
aI495
aI492
aI492
aI501
aI492
aI492
aI504
aI492
aI492
aI498
aI493
aI492
aI492
aI494
aI492
aI492
aI497
aI491
aI492
aI505
aI492
aI491
aI502
aI492
aI492
aI496
aI492
aI491
aI491
aI495
aI492
aI492
aI500
aI492
aI492
aI505
aI492
aI492
aI501
aI492
aI492
aI492
aI494
aI492
aI492
aI496
aI492
aI492
aI506
aI491
aI492
aI504
aI492
aI492
aI497
aI492
aI492
aI491
aI494
aI491
aI492
aI497
aI492
aI492
aI505
aI492
aI492
aI502
aI492
aI492
aI495
aI493
aI491
aI492
aI495
aI492
aI491
aI501
aI491
aI491
aI504
aI492
aI491
aI500
aI492
aI492
aI492
aI494
aI491
aI492
aI497
aI492
aI492
aI506
aI492
aI491
aI503
aI492
aI492
aI492
aI492
aI491
aI495
aI492
aI492
aI499
aI492
aI492
aI504
aI492
aI492
aI501
aI492
aI492
aI492
aI494
aI492
aI492
aI495
aI492
aI491
aI503
aI492
aI492
aI504
aI491
aI491
aI499
aI493
aI492
aI491
aI494
aI491
aI491
aI496
aI492
aI492
aI506
aI492
aI492
aI502
aI493
aI492
aI496
aI493
aI492
aI492
aI494
aI492
aI492
aI500
aI491
aI491
aI505
aI492
aI492
aI500
aI492
aI492
aI492
aI493
aI491
aI492
aI496
aI492
aI492
aI506
aI492
aI491
aI504
aI492
aI492
aI497
aI492
aI491
aI492
aI494
aI492
aI492
aI498
aI492
aI491
aI505
aI491
aI492
aI501
aI492
aI492
aI494
aI493
aI492
aI492
aI495
aI492
aI492
aI502
aI492
aI491
aI504
aI492
aI491
aI500
aI493
aI492
aI491
aI494
aI492
aI492
aI497
aI492
aI492
aI506
aI492
aI492
aI503
aI492
aI492
aI496
aI493
aI491
aI491
aI494
aI492
aI492
aI499
aI492
aI491
aI505
asg12
(lp28
I416
aI416
aI415
aI415
aI415
aI416
aI415
aI416
aI416
aI416
aI416
aI415
aI416
aI417
aI413
aI401
aI430
aI390
aI430
aI419
aI408
aI416
aI417
aI399
aI426
aI410
aI426
aI413
aI416
aI408
aI430
aI398
aI423
aI418
aI416
aI415
aI412
aI425
aI413
aI427
aI396
aI438
aI399
aI420
aI414
aI417
aI412
aI419
aI411
aI426
aI408
aI419
aI417
aI419
aI407
aI424
aI415
aI409
aI422
aI408
aI423
aI414
aI416
aI422
aI407
aI425
aI410
aI415
aI423
aI408
aI430
aI401
aI417
aI423
aI416
aI418
aI408
aI427
aI415
aI407
aI414
aI430
aI403
aI413
aI433
aI397
aI433
aI400
aI417
aI429
aI387
aI442
aI407
aI414
aI427
aI403
aI422
aI412
aI414
aI417
aI420
aI407
aI425
aI419
aI406
aI423
aI414
aI419
aI415
aI422
aI429
aI403
aI427
aI408
aI427
aI402
aI422
aI418
aI401
aI431
aI405
aI420
aI427
aI412
aI418
aI419
aI416
aI419
aI415
aI411
aI427
aI407
aI415
aI423
aI411
aI415
aI419
aI407
aI423
aI407
aI416
aI412
aI427
aI427
aI413
aI419
aI418
aI420
aI412
aI419
aI422
aI406
aI423
aI411
aI415
aI420
aI411
aI416
aI414
aI417
aI415
aI414
aI418
aI419
aI413
aI417
aI417
aI416
aI416
aI415
aI416
aI417
aI415
aI416
aI417
aI415
aI417
aI415
aI416
aI416
aI415
aI417
aI415
aI416
aI416
aI414
aI416
aI417
aI415
aI415
aI416
aI415
aI417
aI416
aI416
aI415
aI415
aI415
aI415
aI417
aI415
aI415
aI416
aI416
aI415
aI416
aI416
aI416
aI417
aI415
aI416
aI416
aI417
aI416
aI415
aI415
aI416
aI415
aI416
aI416
aI415
aI415
aI416
aI416
aI416
aI416
aI416
aI415
aI416
aI415
aI415
aI416
aI415
aI415
aI416
aI415
aI415
aI416
aI416
aI416
aI416
aI416
aI416
aI415
aI416
aI415
aI414
aI417
aI416
aI415
aI416
aI416
aI416
aI416
aI416
aI416
aI415
aI415
aI416
aI415
aI416
aI415
aI415
aI417
aI415
aI415
aI415
aI415
aI415
aI416
aI415
aI416
aI415
aI415
aI416
aI415
aI417
aI415
aI415
aI415
aI416
aI416
aI416
aI416
aI417
aI416
aI416
aI415
aI415
aI416
aI416
aI415
aI416
aI416
aI415
aI417
aI416
aI415
aI415
aI415
aI416
aI415
aI416
aI416
aI415
aI415
aI416
aI415
aI416
aI416
aI416
aI416
aI416
aI416
aI415
aI415
aI416
aI416
aI415
aI417
aI415
aI415
aI416
aI416
aI416
aI416
aI415
aI416
aI415
aI415
aI416
aI416
aI417
aI415
aI417
aI416
aI416
aI415
aI415
aI416
aI415
aI417
aI415
aI415
aI416
aI416
aI415
aI415
aI415
aI415
aI416
aI416
aI416
aI416
aI415
aI416
aI416
aI416
aI416
aI415
aI416
aI417
aI415
aI416
aI416
aI415
aI416
aI416
aI416
aI415
aI415
aI416
aI415
aI415
aI416
aI415
aI416
aI415
aI415
aI415
aI415
aI415
aI415
aI416
aI416
aI415
aI415
aI415
aI415
aI416
aI416
aI415
aI416
aI415
aI415
aI416
aI415
aI416
aI417
aI416
aI415
aI415
aI416
aI415
aI417
aI415
aI415
aI415
aI415
aI415
aI416
aI415
aI416
aI415
aI416
aI415
aI416
aI416
aI417
aI415
aI415
aI416
aI415
aI416
aI416
aI416
aI416
aI416
aI416
aI415
aI415
aI416
aI416
aI417
aI417
aI415
aI415
aI416
aI415
aI415
aI416
aI416
aI415
aI416
aI415
aI416
aI416
aI415
aI415
aI415
aI417
aI415
aI416
aI415
aI415
aI416
aI416
aI416
aI416
aI415
aI415
aI415
aI416
aI415
aI416
aI415
aI415
aI415
aI415
aI417
aI415
aI415
aI417
aI416
aI417
aI417
aI417
aI415
aI416
aI415
aI415
aI417
aI416
aI414
aI416
aI416
aI415
aI416
aI416
aI416
aI416
aI416
aI416
aI416
aI416
aI416
aI415
aI416
aI416
aI415
aI416
aI415
aI416
aI415
aI415
aI416
aI415
aI415
aI415
aI414
aI416
aI416
aI415
aI416
aI416
aI415
aI416
aI416
aI416
aI416
aI416
aI415
aI416
aI415
aI415
aI415
aI416
aI416
aI415
aI415
aI416
aI416
aI416
aI415
aI416
aI416
aI416
aI415
aI415
aI415
aI415
aI416
aI415
aI415
aI415
aI416
aI416
aI417
aI415
aI416
aI416
aI416
aI417
aI415
aI416
aI416
aI416
aI416
aI416
aI416
aI415
aI415
aI415
aI416
aI415
aI415
aI415
aI417
aI416
aI415
aI416
aI416
aI415
aI417
aI416
aI416
aI416
aI416
aI415
aI416
aI415
aI416
aI415
aI416
aI416
aI416
aI417
aI416
aI415
aI416
aI416
aI416
aI417
aI416
aI416
aI416
aI416
aI417
aI415
aI416
aI416
aI415
aI415
aI415
aI416
aI415
aI416
aI415
aI416
aI416
aI416
aI416
aI415
aI415
aI415
aI416
aI415
aI415
aI416
aI415
aI416
aI416
aI415
aI416
aI416
aI417
aI416
aI415
aI416
aI415
aI415
aI416
aI416
aI415
aI415
aI416
aI415
aI416
aI416
aI417
aI416
aI417
aI416
aI415
aI416
aI416
aI415
aI415
aI416
aI416
aI415
aI416
aI416
aI416
aI417
aI415
aI415
aI416
aI417
aI415
aI416
aI416
aI415
asg14
(lp29
I17148
aI30988
aI44828
aI58668
aI6972
aI20812
aI34652
aI48492
aI63409
aI11328
aI25172
aI39012
aI52852
aI1156
aI14996
aI28836
aI42676
aI56524
aI4852
aI19769
aI33216
aI47064
aI60904
aI9208
aI23048
aI36888
aI50728
aI64568
aI12872
aI26720
aI41646
aI55088
aI3412
aI17260
aI31100
aI44940
aI58780
aI7084
aI20924
aI34764
aI48604
aI63521
aI11440
aI25284
aI39124
aI52964
aI1268
aI15108
aI28948
aI42788
aI56636
aI4964
aI19881
aI33328
aI47176
aI61016
aI9320
aI23160
aI37000
aI50840
aI64680
aI12984
aI26832
aI41758
aI55200
aI3524
aI17372
aI31212
aI45052
aI58892
aI7196
aI21036
aI34876
aI48716
aI63633
aI11552
aI25396
aI39236
aI53076
aI1380
aI15220
aI29060
aI42900
aI56748
aI5060
aI19982
aI33420
aI47260
aI61100
aI9404
aI23244
aI37084
aI50932
aI64780
aI13084
aI26924
aI41847
aI55284
aI3608
aI17452
aI31292
aI45132
aI58972
aI7276
aI21116
aI34956
aI48804
aI63730
aI11644
aI25484
aI53172
aI1480
aI15324
aI29164
aI43004
aI56844
aI5172
aI20094
aI33532
aI47372
aI61212
aI9516
aI23356
aI37196
aI51044
aI64892
aI13196
aI27036
aI41959
aI55396
aI3720
aI17564
aI31404
aI45244
aI59084
aI7388
aI21228
aI35068
aI48916
aI63842
aI11756
aI25596
aI39436
aI54640
aI2944
aI16784
aI30624
aI44464
aI58304
aI6632
aI21555
aI34992
aI48832
aI62672
aI10976
aI24824
aI38672
aI52512
aI812
aI14652
aI28492
aI43415
aI56852
aI5180
aI19020
aI32860
aI46700
aI60540
aI8844
aI22684
aI36524
aI50372
aI65298
aI13212
aI27052
aI40892
aI54740
aI3052
aI16892
aI30732
aI44572
aI58412
aI6740
aI21662
aI35100
aI48940
aI62780
aI11084
aI24924
aI38764
aI52612
aI920
aI14764
aI28604
aI43527
aI56964
aI5268
aI19108
aI32948
aI46796
aI60644
aI8948
aI22788
aI36628
aI50468
aI65387
aI13316
aI27156
aI40996
aI54836
aI3140
aI16980
aI30820
aI44668
aI58516
aI6820
aI21738
aI35176
aI49016
aI62856
aI11160
aI25000
aI38840
aI52680
aI992
aI14840
aI28680
aI43598
aI57036
aI5340
aI19180
aI33020
aI46860
aI60700
aI9004
aI22852
aI36700
aI50540
aI65458
aI13392
aI27232
aI41072
aI54912
aI3216
aI17056
aI30896
aI44736
aI58584
aI6896
aI21818
aI35256
aI49096
aI62936
aI11240
aI25080
aI38920
aI52768
aI1076
aI14920
aI28760
aI43683
aI57120
aI5424
aI19264
aI33104
aI46952
aI60800
aI9104
aI22944
aI36784
aI50624
aI27
aI13472
aI27312
aI41152
aI54992
aI3316
aI17160
aI31000
aI44840
aI58680
aI6984
aI21901
aI35340
aI49180
aI63020
aI11332
aI25180
aI39020
aI52860
aI1164
aI15004
aI28844
aI43761
aI57200
aI5504
aI19344
aI33192
aI47040
aI60880
aI9184
aI23024
aI36864
aI50704
aI85
aI13524
aI27364
aI41204
aI55052
aI3384
aI17232
aI31076
aI44916
aI58756
aI7060
aI21979
aI35416
aI49256
aI63096
aI11400
aI25248
aI39096
aI52936
aI1236
aI15076
aI28916
aI43839
aI57276
aI5580
aI19420
aI33260
aI47108
aI60956
aI9260
aI23100
aI36940
aI50780
aI163
aI13600
aI27440
aI41280
aI55120
aI3452
aI17292
aI31132
aI44980
aI58828
aI7132
aI22050
aI35488
aI49328
aI63168
aI11472
aI25312
aI39152
aI52992
aI1304
aI15152
aI28992
aI43910
aI57348
aI5652
aI19492
aI33332
aI47172
aI61012
aI9316
aI23164
aI37012
aI50852
aI234
aI13672
aI27512
aI41352
aI55192
aI3516
aI17360
aI31200
aI45040
aI58880
aI7184
aI22101
aI35540
aI49380
aI63220
aI11532
aI25380
aI39220
aI53060
aI1364
aI15204
aI29044
aI43961
aI57400
aI5704
aI19544
aI33392
aI47240
aI61080
aI9384
aI23224
aI50904
aI285
aI13724
aI27564
aI41404
aI55252
aI3564
aI17404
aI31244
aI45084
aI58924
aI7228
aI22145
aI35584
aI49424
aI63264
aI11576
aI25424
aI39264
aI53104
aI1408
aI15248
aI29088
aI44005
aI57444
aI5748
aI19588
aI33436
aI47284
aI61124
aI9428
aI23268
aI37108
aI50948
aI329
aI13768
aI27608
aI41448
aI55296
aI3628
aI17476
aI31320
aI45160
aI59000
aI7304
aI22223
aI35660
aI49500
aI63340
aI11644
aI25492
aI39340
aI53180
aI1480
aI15320
aI29160
aI44083
aI57520
aI5824
aI19664
aI33504
aI47352
aI61200
aI9504
aI23344
aI37184
aI51024
aI407
aI13844
aI27684
aI41524
aI55364
aI3696
aI17536
aI31376
aI45224
aI59072
aI7376
aI22294
aI35732
aI49572
aI63412
aI11716
aI25556
aI39396
aI53236
aI1548
aI15396
aI29236
aI44154
aI57592
aI5896
aI19736
aI33576
aI47416
aI61256
aI9560
aI23408
aI37256
aI51096
aI478
aI13916
aI27756
aI41596
aI55436
aI3740
aI17580
aI31420
aI45268
aI59116
aI7420
aI22338
aI35776
aI49616
aI63456
aI11760
aI25600
aI39440
aI53280
aI1592
aI15440
aI29280
aI44198
aI57636
aI5940
aI19780
aI33620
aI47460
aI61300
aI9604
aI23452
aI37300
aI51140
aI13960
aI27800
aI41640
aI55480
aI3784
aI17624
aI31464
aI45312
aI59160
aI7464
aI22382
aI35820
aI49660
aI63500
aI11804
aI25644
aI39484
aI53324
aI1636
aI15484
aI29324
aI44242
aI57680
aI5984
aI19824
aI33664
aI47504
aI61344
aI9796
aI23640
aI37480
aI51320
aI702
aI14140
aI27980
aI41820
aI55660
aI3964
aI17804
aI31644
aI45492
aI59340
aI7644
aI22562
aI36000
aI49840
aI63680
aI11984
aI25824
aI39664
aI53504
aI1836
aI15676
aI29516
aI44433
aI57872
aI6184
aI20032
aI33872
aI47712
aI61552
aI10008
aI23856
aI37696
aI51536
aI923
aI14360
aI28200
aI42040
aI55880
aI4188
aI18036
aI31880
aI45720
aI59560
aI7892
aI22810
aI36248
aI50088
aI63928
aI12232
aI26072
aI39912
aI53752
aI2064
aI15912
aI29752
aI44670
aI58108
aI6440
aI20280
aI34120
aI47960
aI61800
aI10104
aI23944
aI37784
aI51624
aI1005
aI14444
aI28292
aI42140
aI55980
aI4284
aI18124
aI31964
aI45804
aI59644
aI7972
aI22895
aI36332
aI50172
aI64012
aI12316
aI26164
aI40012
aI53852
aI2176
aI16024
aI29864
aI44782
aI58220
aI6552
aI20392
aI34232
aI48072
aI61912
aI10216
aI24056
asg16
(lp30
I598
aI597
aI599
aI598
aI599
aI600
aI599
aI599
aI600
aI600
aI599
aI600
aI598
aI703
aI672
aI655
aI497
aI587
aI593
aI588
aI671
aI568
aI625
aI536
aI652
aI540
aI595
aI587
aI664
aI508
aI595
aI614
aI617
aI550
aI632
aI519
aI607
aI593
aI636
aI528
aI636
aI547
aI598
aI606
aI545
aI618
aI572
aI544
aI591
aI622
aI547
aI604
aI572
aI581
aI563
aI644
aI528
aI598
aI539
aI600
aI591
aI582
aI520
aI660
aI520
aI606
aI608
aI579
aI544
aI507
aI637
aI606
aI527
aI583
aI545
aI536
aI640
aI567
aI508
aI567
aI544
aI644
aI639
aI512
aI494
aI608
aI581
aI583
aI560
aI524
aI526
aI572
aI608
aI604
aI458
aI600
aI535
aI622
aI532
aI583
aI474
aI631
aI516
aI588
aI503
aI600
aI508
aI603
aI540
aI519
aI520
aI563
aI580
aI554
aI517
aI583
aI557
aI485
aI643
aI513
aI580
aI470
aI605
aI503
aI596
aI501
aI558
aI564
aI518
aI585
aI508
aI536
aI599
aI480
aI589
aI461
aI542
aI531
aI603
aI490
aI518
aI600
aI484
aI299
aI315
aI376
aI413
aI286
aI302
aI396
aI387
aI315
aI316
aI363
aI376
aI327
aI329
aI342
aI362
aI358
aI323
aI332
aI368
aI348
aI332
aI336
aI359
aI347
aI344
aI343
aI347
aI355
aI353
aI338
aI344
aI358
aI351
aI336
aI345
aI352
aI352
aI344
aI340
aI346
aI352
aI345
aI342
aI345
aI355
aI350
aI339
aI344
aI352
aI350
aI344
aI342
aI352
aI350
aI344
aI345
aI346
aI345
aI343
aI342
aI348
aI347
aI345
aI344
aI346
aI347
aI348
aI347
aI345
aI348
aI347
aI346
aI347
aI352
aI347
aI345
aI343
aI347
aI345
aI346
aI347
aI347
aI347
aI350
aI348
aI347
aI350
aI347
aI344
aI348
aI350
aI348
aI350
aI345
aI345
aI347
aI344
aI348
aI344
aI345
aI345
aI345
aI342
aI344
aI343
aI348
aI345
aI343
aI348
aI347
aI345
aI351
aI350
aI346
aI344
aI349
aI347
aI346
aI346
aI348
aI344
aI345
aI348
aI348
aI345
aI347
aI347
aI350
aI342
aI349
aI344
aI347
aI345
aI345
aI346
aI346
aI348
aI345
aI347
aI346
aI345
aI348
aI344
aI346
aI347
aI345
aI345
aI348
aI345
aI345
aI342
aI348
aI348
aI344
aI349
aI344
aI348
aI348
aI349
aI348
aI348
aI349
aI345
aI343
aI350
aI342
aI347
aI346
aI344
aI343
aI344
aI347
aI347
aI348
aI349
aI348
aI348
aI346
aI345
aI348
aI344
aI341
aI347
aI348
aI345
aI348
aI346
aI345
aI347
aI345
aI348
aI344
aI348
aI346
aI345
aI348
aI348
aI346
aI350
aI347
aI345
aI348
aI348
aI344
aI342
aI347
aI344
aI343
aI345
aI347
aI347
aI348
aI347
aI345
aI345
aI345
aI348
aI346
aI347
aI347
aI347
aI346
aI346
aI347
aI347
aI344
aI348
aI348
aI344
aI344
aI345
aI344
aI345
aI346
aI351
aI348
aI346
aI346
aI347
aI346
aI349
aI347
aI345
aI348
aI344
aI345
aI346
aI346
aI340
aI348
aI345
aI344
aI345
aI347
aI344
aI348
aI347
aI347
aI347
aI344
aI345
aI345
aI342
aI348
aI344
aI344
aI348
aI348
aI343
aI347
aI348
aI347
aI348
aI345
aI347
aI349
aI343
aI350
aI347
aI345
aI348
aI344
aI344
aI344
aI347
aI345
aI342
aI348
aI344
aI347
aI347
aI345
aI349
aI347
aI349
aI348
aI346
aI350
aI347
aI348
aI343
aI346
aI347
aI346
aI347
aI348
aI349
aI344
aI347
aI352
aI347
aI346
aI349
aI344
aI344
aI352
aI349
aI345
aI347
aI348
aI350
aI345
aI349
aI343
aI350
aI348
aI347
aI345
aI346
aI349
aI341
aI348
aI347
aI346
aI351
aI344
aI344
aI344
aI344
aI344
aI348
aI348
aI345
aI345
aI349
aI346
aI346
aI343
aI344
aI344
aI345
aI347
aI347
aI348
aI347
aI343
aI346
aI348
aI345
aI344
aI348
aI348
aI345
aI348
aI345
aI346
aI347
aI345
aI344
aI342
aI345
aI347
aI348
aI346
aI347
aI347
aI346
aI346
aI345
aI349
aI347
aI349
aI347
aI348
aI347
aI347
aI348
aI346
aI347
aI347
aI348
aI349
aI348
aI345
aI347
aI347
aI345
aI348
aI345
aI345
aI348
aI345
aI345
aI343
aI345
aI345
aI344
aI352
aI347
aI347
aI347
aI346
aI348
aI348
aI347
aI348
aI344
aI348
aI347
aI346
aI347
aI347
aI350
aI345
aI348
aI344
aI346
aI347
aI347
aI345
aI345
aI348
aI344
aI347
aI347
aI348
aI344
aI349
aI344
aI347
aI347
aI350
aI347
aI348
aI348
aI346
aI347
aI344
aI348
aI344
aI347
aI345
aI344
aI348
aI345
aI348
aI347
aI343
aI347
aI344
aI347
aI345
aI344
aI348
aI350
aI344
aI344
aI347
aI345
aI345
aI348
aI347
aI344
aI346
aI345
aI348
aI344
aI345
aI344
aI349
aI349
aI345
aI347
aI348
aI348
aI345
aI348
aI348
aI345
aI348
aI346
aI345
aI344
aI344
aI349
aI343
aI348
aI345
aI346
aI345
aI348
aI344
aI348
aI344
aI344
aI345
aI347
aI347
aI349
aI349
aI348
aI350
aI348
aI346
aI349
aI344
aI347
aI342
aI344
asg18
(lp31
I532
aI530
aI532
aI529
aI529
aI528
aI534
aI530
aI533
aI532
aI535
aI533
aI534
aI519
aI537
aI551
aI525
aI538
aI551
aI499
aI531
aI566
aI560
aI551
aI554
aI531
aI545
aI526
aI516
aI551
aI572
aI515
aI556
aI530
aI531
aI531
aI537
aI552
aI531
aI527
aI531
aI570
aI511
aI531
aI526
aI545
aI529
aI530
aI510
aI545
aI509
aI524
aI542
aI534
aI527
aI540
aI520
aI531
aI531
aI508
aI548
aI534
aI524
aI526
aI533
aI530
aI515
aI524
aI548
aI519
aI551
aI548
aI512
aI560
aI547
aI545
aI534
aI531
aI534
aI515
aI536
aI543
aI517
aI536
aI591
aI508
aI537
aI535
aI512
aI558
aI487
aI530
aI537
aI536
aI521
aI521
aI546
aI545
aI500
aI512
aI569
aI510
aI571
aI508
aI527
aI536
aI536
aI521
aI550
aI527
aI519
aI515
aI551
aI520
aI542
aI545
aI529
aI523
aI514
aI525
aI516
aI536
aI547
aI542
aI507
aI556
aI513
aI542
aI517
aI512
aI544
aI510
aI521
aI531
aI532
aI529
aI553
aI521
aI519
aI552
aI487
aI526
aI546
aI545
aI537
aI529
aI532
aI550
aI514
aI526
aI536
aI516
aI537
aI527
aI523
aI536
aI528
aI523
aI527
aI535
aI528
aI524
aI530
aI538
aI524
aI529
aI536
aI529
aI527
aI531
aI529
aI530
aI529
aI528
aI529
aI529
aI534
aI528
aI533
aI534
aI529
aI527
aI530
aI531
aI529
aI527
aI527
aI530
aI527
aI527
aI529
aI531
aI529
aI528
aI533
aI532
aI528
aI532
aI531
aI530
aI527
aI527
aI528
aI530
aI527
aI526
aI525
aI532
aI526
aI528
aI527
aI533
aI526
aI531
aI533
aI529
aI528
aI528
aI529
aI530
aI531
aI530
aI528
aI529
aI531
aI531
aI530
aI530
aI527
aI531
aI529
aI528
aI529
aI529
aI528
aI529
aI529
aI528
aI530
aI529
aI529
aI527
aI530
aI529
aI526
aI526
aI527
aI528
aI530
aI528
aI530
aI530
aI531
aI529
aI529
aI531
aI528
aI528
aI528
aI530
aI530
aI531
aI531
aI528
aI528
aI527
aI528
aI528
aI527
aI526
aI528
aI529
aI528
aI528
aI531
aI531
aI529
aI531
aI532
aI526
aI529
aI528
aI526
aI529
aI529
aI531
aI529
aI527
aI531
aI527
aI527
aI531
aI527
aI533
aI532
aI530
aI527
aI529
aI530
aI532
aI530
aI529
aI530
aI531
aI528
aI529
aI528
aI531
aI523
aI527
aI531
aI528
aI527
aI529
aI531
aI536
aI530
aI528
aI531
aI531
aI532
aI527
aI530
aI531
aI528
aI531
aI528
aI532
aI531
aI529
aI529
aI529
aI532
aI531
aI527
aI530
aI531
aI526
aI531
aI528
aI528
aI529
aI531
aI531
aI527
aI528
aI531
aI531
aI526
aI529
aI529
aI530
aI528
aI531
aI527
aI531
aI530
aI528
aI530
aI528
aI529
aI529
aI527
aI527
aI531
aI530
aI530
aI527
aI528
aI528
aI529
aI531
aI525
aI528
aI535
aI531
aI531
aI527
aI529
aI529
aI528
aI531
aI531
aI532
aI526
aI528
aI529
aI527
aI531
aI529
aI526
aI527
aI531
aI527
aI527
aI529
aI528
aI527
aI530
aI531
aI532
aI529
aI529
aI529
aI530
aI531
aI527
aI529
aI526
aI529
aI529
aI528
aI530
aI529
aI527
aI527
aI529
aI530
aI528
aI525
aI527
aI531
aI527
aI531
aI528
aI531
aI531
aI531
aI534
aI529
aI529
aI531
aI529
aI527
aI529
aI530
aI531
aI530
aI530
aI530
aI530
aI531
aI527
aI531
aI528
aI530
aI527
aI529
aI526
aI527
aI528
aI529
aI527
aI524
aI529
aI531
aI527
aI528
aI529
aI527
aI529
aI527
aI528
aI528
aI529
aI531
aI531
aI528
aI528
aI533
aI529
aI526
aI531
aI528
aI530
aI530
aI531
aI530
aI530
aI529
aI528
aI527
aI530
aI529
aI530
aI527
aI528
aI531
aI527
aI530
aI528
aI529
aI529
aI531
aI530
aI535
aI529
aI531
aI528
aI531
aI531
aI529
aI528
aI528
aI528
aI531
aI529
aI528
aI527
aI531
aI530
aI527
aI532
aI532
aI526
aI529
aI529
aI527
aI530
aI530
aI528
aI529
aI530
aI531
aI531
aI530
aI531
aI529
aI528
aI529
aI528
aI533
aI526
aI528
aI525
aI526
aI528
aI530
aI531
aI529
aI531
aI531
aI532
aI530
aI533
aI531
aI531
aI531
aI529
aI533
aI527
aI527
aI531
aI528
aI530
aI529
aI527
aI530
aI531
aI532
aI530
aI528
aI529
aI527
aI529
aI527
aI529
aI528
aI527
aI529
aI527
aI529
aI530
aI530
aI532
aI529
aI529
aI532
aI532
aI528
aI531
aI527
aI530
aI531
aI529
aI531
aI528
aI534
aI529
aI530
aI527
aI529
aI529
aI530
aI531
aI524
aI529
aI528
aI529
aI529
aI532
aI529
aI532
aI528
aI528
aI529
aI528
aI531
aI530
aI531
aI528
aI529
aI529
aI526
aI531
aI528
aI529
aI531
aI530
aI531
aI532
aI527
aI530
aI526
aI529
aI530
aI528
aI531
aI529
aI529
aI525
aI529
aI529
aI529
aI529
aI531
aI527
aI532
aI529
aI531
aI527
aI526
aI531
aI529
aI532
aI531
aI531
aI529
aI532
aI528
aI532
aI528
aI528
aI529
aI531
aI527
aI529
aI528
aI527
aI530
aI528
aI526
aI533
asg20
(lp32
I748
aI745
aI747
aI748
aI745
aI751
aI748
aI745
aI747
aI745
aI745
aI748
aI742
aI657
aI640
aI697
aI898
aI704
aI735
aI762
aI619
aI867
aI703
aI811
aI631
aI797
aI729
aI762
aI639
aI914
aI718
aI721
aI711
aI844
aI650
aI854
aI702
aI736
aI698
aI839
aI698
aI826
aI713
aI720
aI809
aI687
aI759
aI805
aI743
aI708
aI816
aI707
aI799
aI747
aI774
aI695
aI824
aI731
aI827
aI697
aI752
aI739
aI858
aI676
aI852
aI720
aI755
aI770
aI762
aI837
aI654
aI712
aI828
aI725
aI788
aI802
aI683
aI739
aI831
aI763
aI816
aI682
aI675
aI856
aI830
aI712
aI771
aI707
aI794
aI822
aI769
aI754
aI696
aI699
aI915
aI699
aI819
aI707
aI825
aI696
aI868
aI656
aI847
aI688
aI838
aI663
aI865
aI685
aI791
aI804
aI814
aI748
aI734
aI764
aI807
aI715
aI781
aI833
aI658
aI875
aI657
aI885
aI657
aI846
aI676
aI825
aI732
aI747
aI818
aI708
aI828
aI783
aI684
aI890
aI633
aI857
aI751
aI790
aI719
aI824
aI807
aI713
aI894
aI769
aI755
aI727
aI657
aI780
aI787
aI694
aI703
aI771
aI757
aI715
aI710
aI752
aI732
aI743
aI729
aI712
aI753
aI752
aI713
aI729
aI748
aI739
aI721
aI736
aI735
aI734
aI741
aI731
aI727
aI745
aI744
aI723
aI734
aI745
aI734
aI728
aI732
aI737
aI742
aI738
aI730
aI732
aI738
aI739
aI727
aI741
aI741
aI738
aI734
aI737
aI739
aI737
aI735
aI734
aI735
aI742
aI734
aI733
aI741
aI735
aI734
aI733
aI736
aI738
aI734
aI737
aI733
aI736
aI737
aI734
aI731
aI739
aI737
aI736
aI735
aI734
aI736
aI735
aI734
aI738
aI735
aI736
aI736
aI737
aI735
aI733
aI736
aI735
aI737
aI735
aI734
aI734
aI733
aI737
aI735
aI735
aI735
aI737
aI735
aI735
aI734
aI736
aI739
aI736
aI736
aI735
aI737
aI736
aI732
aI736
aI737
aI732
aI735
aI732
aI737
aI735
aI731
aI737
aI737
aI736
aI736
aI735
aI737
aI736
aI734
aI737
aI735
aI733
aI736
aI734
aI734
aI736
aI735
aI735
aI736
aI736
aI731
aI735
aI740
aI735
aI735
aI736
aI736
aI736
aI736
aI737
aI736
aI736
aI736
aI735
aI736
aI737
aI736
aI737
aI737
aI736
aI736
aI734
aI736
aI736
aI736
aI737
aI737
aI733
aI733
aI732
aI736
aI734
aI733
aI734
aI736
aI736
aI734
aI734
aI736
aI736
aI734
aI735
aI736
aI737
aI734
aI736
aI736
aI737
aI736
aI739
aI737
aI733
aI735
aI736
aI735
aI734
aI735
aI735
aI733
aI733
aI734
aI734
aI736
aI735
aI736
aI735
aI734
aI733
aI734
aI736
aI731
aI736
aI737
aI734
aI734
aI735
aI735
aI735
aI734
aI735
aI735
aI733
aI737
aI735
aI736
aI732
aI735
aI734
aI735
aI734
aI736
aI736
aI733
aI732
aI736
aI734
aI735
aI736
aI737
aI734
aI734
aI733
aI736
aI734
aI734
aI735
aI735
aI737
aI734
aI736
aI734
aI735
aI734
aI735
aI734
aI736
aI737
aI732
aI736
aI736
aI735
aI733
aI735
aI736
aI735
aI736
aI737
aI736
aI734
aI733
aI733
aI735
aI736
aI735
aI732
aI736
aI734
aI736
aI734
aI737
aI736
aI735
aI736
aI735
aI736
aI734
aI734
aI735
aI735
aI733
aI734
aI737
aI730
aI738
aI735
aI738
aI739
aI735
aI736
aI736
aI737
aI735
aI737
aI733
aI736
aI733
aI735
aI735
aI732
aI736
aI735
aI735
aI736
aI735
aI734
aI734
aI734
aI736
aI734
aI729
aI736
aI739
aI733
aI734
aI734
aI735
aI737
aI737
aI733
aI734
aI736
aI735
aI735
aI737
aI735
aI736
aI739
aI732
aI733
aI736
aI735
aI735
aI735
aI734
aI734
aI738
aI737
aI735
aI739
aI738
aI732
aI732
aI736
aI735
aI735
aI734
aI736
aI731
aI736
aI734
aI736
aI738
aI738
aI739
aI737
aI735
aI736
aI735
aI737
aI733
aI737
aI736
aI733
aI738
aI732
aI738
aI736
aI736
aI736
aI735
aI736
aI735
aI737
aI736
aI737
aI735
aI735
aI737
aI735
aI737
aI736
aI732
aI736
aI736
aI737
aI735
aI737
aI736
aI736
aI736
aI736
aI736
aI736
aI735
aI736
aI733
aI736
aI734
aI737
aI734
aI737
aI736
aI732
aI734
aI738
aI736
aI733
aI734
aI733
aI736
aI735
aI735
aI734
aI734
aI735
aI735
aI735
aI736
aI737
aI736
aI736
aI734
aI733
aI736
aI736
aI736
aI737
aI737
aI737
aI733
aI736
aI736
aI737
aI738
aI736
aI736
aI734
aI733
aI737
aI734
aI733
aI734
aI734
aI732
aI736
aI736
aI737
aI734
aI738
aI732
aI737
aI732
aI737
aI734
aI735
aI734
aI736
aI736
aI732
aI734
aI733
aI738
aI735
aI737
aI736
aI732
aI734
aI736
aI735
aI737
aI736
aI735
aI733
aI732
aI736
aI735
aI739
aI736
aI737
aI736
aI737
aI737
aI738
aI737
aI734
aI736
aI738
aI734
aI737
aI738
aI733
aI740
aI734
aI736
aI734
aI734
aI733
aI737
aI736
aI733
aI735
aI737
aI736
aI735
aI733
aI738
aI737
aI736
aI734
aI734
aI734
aI737
aI734
asg22
(lp33
I7593
aI7593
aI7593
aI7593
aI7594
aI7594
aI7594
aI7594
aI7594
aI7595
aI7595
aI7595
aI7595
aI7596
aI7596
aI7596
aI7596
aI7596
aI7597
aI7597
aI7597
aI7597
aI7597
aI7598
aI7598
aI7598
aI7598
aI7599
aI7599
aI7599
aI7599
aI7599
aI7600
aI7600
aI7600
aI7600
aI7600
aI7601
aI7601
aI7601
aI7601
aI7601
aI7602
aI7602
aI7602
aI7602
aI7603
aI7603
aI7603
aI7603
aI7603
aI7604
aI7604
aI7604
aI7604
aI7604
aI7605
aI7605
aI7605
aI7605
aI7606
aI7606
aI7606
aI7606
aI7606
aI7607
aI7607
aI7607
aI7607
aI7607
aI7608
aI7608
aI7608
aI7608
aI7608
aI7609
aI7609
aI7609
aI7609
aI7610
aI7610
aI7610
aI7610
aI7610
aI7611
aI7611
aI7611
aI7611
aI7611
aI7612
aI7612
aI7612
aI7612
aI7613
aI7613
aI7613
aI7613
aI7613
aI7614
aI7614
aI7614
aI7614
aI7614
aI7615
aI7615
aI7615
aI7615
aI7615
aI7616
aI7616
aI7616
aI7617
aI7617
aI7617
aI7617
aI7617
aI7618
aI7618
aI7618
aI7618
aI7618
aI7619
aI7619
aI7619
aI7619
aI7620
aI7620
aI7620
aI7620
aI7620
aI7621
aI7621
aI7621
aI7621
aI7621
aI7622
aI7622
aI7622
aI7622
aI7622
aI7623
aI7623
aI7623
aI7707
aI7708
aI7708
aI7708
aI7708
aI7708
aI7709
aI7709
aI7709
aI7709
aI7709
aI7710
aI7710
aI7710
aI7710
aI7711
aI7711
aI7711
aI7711
aI7711
aI7712
aI7712
aI7712
aI7712
aI7712
aI7713
aI7713
aI7713
aI7713
aI7714
aI7714
aI7714
aI7714
aI7714
aI7715
aI7715
aI7715
aI7715
aI7715
aI7716
aI7716
aI7716
aI7716
aI7716
aI7717
aI7717
aI7717
aI7717
aI7718
aI7718
aI7718
aI7718
aI7718
aI7719
aI7719
aI7719
aI7719
aI7719
aI7720
aI7720
aI7720
aI7720
aI7721
aI7721
aI7721
aI7721
aI7721
aI7722
aI7722
aI7722
aI7722
aI7722
aI7723
aI7723
aI7723
aI7723
aI7723
aI7724
aI7724
aI7724
aI7724
aI7725
aI7725
aI7725
aI7725
aI7725
aI7726
aI7726
aI7726
aI7726
aI7726
aI7727
aI7727
aI7727
aI7727
aI7728
aI7728
aI7728
aI7728
aI7728
aI7729
aI7729
aI7729
aI7729
aI7729
aI7730
aI7730
aI7730
aI7730
aI7730
aI7731
aI7731
aI7731
aI7731
aI7732
aI7732
aI7732
aI7732
aI7732
aI7733
aI7733
aI7733
aI7733
aI7733
aI7734
aI7734
aI7734
aI7734
aI7735
aI7735
aI7735
aI7735
aI7735
aI7736
aI7736
aI7736
aI7736
aI7736
aI7737
aI7737
aI7737
aI7737
aI7737
aI7738
aI7738
aI7738
aI7738
aI7739
aI7739
aI7739
aI7739
aI7739
aI7740
aI7740
aI7740
aI7740
aI7740
aI7741
aI7741
aI7741
aI7741
aI7742
aI7742
aI7742
aI7742
aI7742
aI7743
aI7743
aI7743
aI7743
aI7743
aI7744
aI7744
aI7744
aI7744
aI7744
aI7745
aI7745
aI7745
aI7745
aI7746
aI7746
aI7746
aI7746
aI7746
aI7747
aI7747
aI7747
aI7747
aI7747
aI7748
aI7748
aI7748
aI7748
aI7749
aI7749
aI7749
aI7749
aI7749
aI7750
aI7750
aI7750
aI7750
aI7750
aI7751
aI7751
aI7751
aI7751
aI7751
aI7752
aI7752
aI7752
aI7752
aI7753
aI7753
aI7753
aI7753
aI7753
aI7754
aI7754
aI7754
aI7754
aI7754
aI7755
aI7755
aI7755
aI7755
aI7756
aI7756
aI7756
aI7756
aI7756
aI7757
aI7757
aI7757
aI7757
aI7757
aI7758
aI7758
aI7758
aI7758
aI7758
aI7759
aI7759
aI7759
aI7759
aI7760
aI7760
aI7760
aI7760
aI7760
aI7761
aI7761
aI7761
aI7761
aI7761
aI7762
aI7762
aI7762
aI7763
aI7763
aI7763
aI7763
aI7763
aI7764
aI7764
aI7764
aI7764
aI7764
aI7765
aI7765
aI7765
aI7765
aI7765
aI7766
aI7766
aI7766
aI7766
aI7767
aI7767
aI7767
aI7767
aI7767
aI7768
aI7768
aI7768
aI7768
aI7768
aI7769
aI7769
aI7769
aI7769
aI7770
aI7770
aI7770
aI7770
aI7770
aI7771
aI7771
aI7771
aI7771
aI7771
aI7772
aI7772
aI7772
aI7772
aI7772
aI7773
aI7773
aI7773
aI7773
aI7774
aI7774
aI7774
aI7774
aI7774
aI7775
aI7775
aI7775
aI7775
aI7775
aI7776
aI7776
aI7776
aI7776
aI7777
aI7777
aI7777
aI7777
aI7777
aI7778
aI7778
aI7778
aI7778
aI7778
aI7779
aI7779
aI7779
aI7779
aI7779
aI7780
aI7780
aI7780
aI7780
aI7781
aI7781
aI7781
aI7781
aI7781
aI7782
aI7782
aI7782
aI7782
aI7782
aI7783
aI7783
aI7783
aI7783
aI7784
aI7784
aI7784
aI7784
aI7784
aI7785
aI7785
aI7785
aI7785
aI7785
aI7786
aI7786
aI7786
aI7786
aI7786
aI7787
aI7787
aI7787
aI7787
aI7788
aI7788
aI7788
aI7788
aI7788
aI7789
aI7789
aI7789
aI7789
aI7789
aI7790
aI7790
aI7790
aI7790
aI7791
aI7791
aI7791
aI7791
aI7792
aI7792
aI7792
aI7792
aI7792
aI7793
aI7793
aI7793
aI7793
aI7793
aI7794
aI7794
aI7794
aI7794
aI7795
aI7795
aI7795
aI7795
aI7795
aI7796
aI7796
aI7796
aI7796
aI7796
aI7797
aI7797
aI7797
aI7797
aI7798
aI7798
aI7798
aI7798
aI7798
aI7799
aI7799
aI7799
aI7799
aI7799
aI7800
aI7800
aI7800
aI7800
aI7800
aI7801
aI7801
aI7801
aI7801
aI7802
aI7802
aI7802
aI7802
aI7802
aI7803
aI7803
aI7803
aI7803
aI7803
aI7804
aI7804
aI7804
aI7804
aI7805
aI7805
aI7805
aI7805
aI7805
aI7806
aI7806
aI7806
aI7806
aI7806
aI7807
aI7807
aI7807
aI7807
aI7807
aI7808
aI7808
aI7808
aI7808
aI7809
aI7809
aI7809
aI7809
aI7809
aI7810
aI7810
aI7810
aI7810
aI7810
aI7811
aI7811
aI7811
aI7811
aI7812
aI7812
aI7812
aI7812
aI7812
aI7813
aI7813
aI7813
aI7813
aI7813
aI7814
aI7814
aI7814
aI7814
aI7814
aI7815
aI7815
aI7815
aI7815
aI7816
aI7816
aI7816
aI7816
aI7816
aI7817
aI7817
aI7817
aI7817
aI7817
aI7818
aI7818
asg4
(g5
tp34
Rp35
g8
(F334.06
F0.78511145705562024
tp36
sg10
(F494.08999999999997
F4.1523366915509152
tp37
sg12
(F415.64999999999998
F0.60621778264910742
tp38
sg14
(F32356.169999999998
F18790.546705221215
tp39
sg16
(F346.30000000000001
F1.7291616465790589
tp40
sg18
(F529.13
F1.7358283325260018
tp41
sg20
(F735.38
F1.8098618731825917
tp42
sg22
(F7829.4499999999998
F6.1504064906313332
tp43
stp44
a.