(lp0
(((F-25.0244140625
F0.00732421875
tp1
(F25.01708984375
F0.0048828125
tp2
I1000
F9166.2900000000009
F9169.3860000000004
tp3
ccollections
defaultdict
p4
(c__builtin__
list
p5
tp6
Rp7
S'a'
p8
(F336.87374128582496
F3.7448048009686548
tp9
sS'c'
p10
(F495.69016266460108
F6.5576195512991999
tp11
sS'b'
p12
(F414.14992272024728
F12.186181743940576
tp13
sS't'
p14
(F26377.378921568627
F17896.707215515569
tp15
sS'y'
p16
(F576.26103795507356
F8.9546161954434442
tp17
sS'x'
p18
(F535.32068164213786
F2.4252157466142545
tp19
sS'z'
p20
(F756.62645011600932
F31.347176214408808
tp21
sS'T'
p22
(F38515.642647058827
F26582.826034115551
tp23
sg4
(g5
tp24
Rp25
g4
(g5
tp26
Rp27
g8
(F346.38613861386136
F36.048364183929657
tp28
sg10
(F496.06930693069307
F7.3689977094871697
tp29
sg12
(F415.04950495049508
F25.774104833203157
tp30
sg14
(F27450.66037735849
F18376.796542588028
tp31
sg16
(F380.57843137254901
F69.761278696584554
tp32
sg18
(F534.90099009900985
F28.060932621952588
tp33
sg20
(F744.31683168316829
F42.491450670232219
tp34
sg22
(F39119.421383647801
F26826.940704064938
tp35
stp36
a(((F25.01708984375
F0.0048828125
tp37
(F-25.0244140625
F0.00732421875
tp38
I1000
F9196.0380000000005
F9199.1440000000002
tp39
g4
(g5
tp40
Rp41
g8
(F336.81992337164752
F0.93492556809774008
tp42
sg10
(F496.06283524904217
F7.3933203522568549
tp43
sg12
(F414.50840978593271
F18.011907959959792
tp44
sg14
(F26351.723032069971
F17776.157392485962
tp45
sg16
(F361.7685823754789
F1.996186378900074
tp46
sg18
(F532.71111111111111
F1.9582009275638128
tp47
sg20
(F743.34150076569676
F20.597017481695556
tp48
sg22
(F39063.402332361518
F27039.325886240989
tp49
sg4
(g5
tp50
Rp51
g4
(g5
tp52
Rp53
g8
(F328.48514851485146
F33.014432445983658
tp54
sg10
(F495.52475247524751
F6.5515383416188389
tp55
sg12
(F413.42574257425741
F15.763315311098058
tp56
sg14
(F26949.742138364782
F17776.989850749007
tp57
sg16
(F556.26732673267327
F58.528640884140906
tp58
sg18
(F535.16831683168311
F16.560162927243407
tp59
sg20
(F758.0792079207921
F42.21507477177402
tp60
sg22
(F39135.125786163524
F27114.944267659212
tp61
stp62
a(((F-0.04150390625
F-45.0048828125
tp63
(F-0.04150390625
F45.0146484375
tp64
I1000
F9231.1239999999998
F9236.6270000000004
tp65
g4
(g5
tp66
Rp67
g8
(F336.81039755351679
F2.5598312302920108
tp68
sg10
(F496.06804281345563
F7.3358147137851315
tp69
sg12
(F414.52551408987051
F18.78136919525377
tp70
sg14
(F26606.613449443637
F17892.366475130675
tp71
sg16
(F470.22935779816515
F10.539614823480578
tp72
sg18
(F360.40061162079513
F17.304833062827992
tp73
sg20
(F707.34377387318568
F20.771287216204968
tp74
sg22
(F39830.449927431058
F27483.027029569665
tp75
sg4
(g5
tp76
Rp77
g4
(g5
tp78
Rp79
g8
(F336.70999999999998
F1.9198697872512138
tp80
sg10
(F495.75999999999999
F6.6964468190227606
tp81
sg12
(F423.19999999999999
F24.0869259142797
tp82
sg14
(F25869.031446540881
F18271.866496080343
tp83
sg16
(F465.42000000000002
F3.0600000000000063
tp84
sg18
(F669.65999999999997
F99.918789023886816
tp85
sg20
(F693.91089108910887
F71.019882728502978
tp86
sg22
(F40173.817610062892
F27629.182646185793
tp87
stp88
a(((F-0.04150390625
F45.0146484375
tp89
(F-0.04150390625
F-45.02197265625
tp90
I1000
F9274.3019999999997
F9279.8130000000001
tp91
g4
(g5
tp92
Rp93
g8
(F337.42503863987633
F0.87035530241863879
tp94
sg10
(F495.96058732612056
F6.79843319716724
tp95
sg12
(F414.61033950617286
F4.0798569338624286
tp96
sg14
(F26483.597262952102
F17837.643075332689
tp97
sg16
(F465.93353941267389
F1.9200166612592433
tp98
sg18
(F706.38948995363216
F1.7664434056998195
tp99
sg20
(F694.27006172839504
F27.269424473341985
tp100
sg22
(F40637.899315738025
F28160.698398216118
tp101
sg4
(g5
tp102
Rp103
g4
(g5
tp104
Rp105
g8
(F337.50980392156862
F1.4802298313809628
tp106
sg10
(F496.3235294117647
F7.5344460804581379
tp107
sg12
(F408.93137254901961
F18.350754541264941
tp108
sg14
(F31600.316239316238
F18859.725228735744
tp109
sg16
(F469.86274509803923
F3.3461690582511681
tp110
sg18
(F383.16666666666669
F85.102485313508652
tp111
sg20
(F708.23529411764707
F4.9905331370431849
tp112
sg22
(F56124.692307692305
F16472.991377217208
tp113
stp114
a(((F-24.95361328125
F90.02685546875
tp115
(F24.98779296875
F90.00244140625
tp116
I8000
F9307.3580000000002
F9308.0669999999991
tp117
g4
(g5
tp118
Rp119
g8
(F337.46092977250248
F1.9272646129276498
tp120
sg10
(F496.71216617210683
F8.1077828526326527
tp121
sg12
(F414.09000989119681
F3.1986348936521711
tp122
sg14
(F32771.043026706233
F18816.371148193699
tp123
sg16
(F572.66419386745793
F10.113084326624818
tp124
sg18
(F757.44065281899111
F38.163920864552942
tp125
sg20
(F517.55143422354104
F18.706570552091993
tp126
sg22
(F62324.857566765575
F99.917658926712789
tp127
sg4
(g5
tp128
Rp129
g8
(lp130
I336
aI337
aI338
aI339
aI338
aI337
aI336
aI338
aI339
aI338
aI337
aI336
aI335
aI341
aI342
aI337
aI333
aI337
aI340
aI338
aI336
aI337
aI339
aI339
aI336
aI336
aI338
aI339
aI336
aI336
asg10
(lp131
I492
aI509
aI494
aI492
aI492
aI492
aI499
aI493
aI492
aI492
aI513
aI499
aI493
aI492
aI492
aI505
aI500
aI492
aI492
aI492
aI508
aI494
aI491
aI492
aI491
aI511
aI493
aI492
aI492
aI492
asg12
(lp132
I415
aI412
aI416
aI415
aI414
aI413
aI411
aI415
aI414
aI415
aI414
aI412
aI415
aI415
aI412
aI414
aI414
aI416
aI412
aI415
aI416
aI415
aI414
aI414
aI415
aI412
aI415
aI415
aI414
aI415
asg14
(lp133
I10749
aI17857
aI24965
aI39302
aI46542
aI53782
aI1684
aI8944
aI16200
aI30044
aI37304
aI44560
aI6462
aI13702
aI20941
aI35307
aI42547
aI49787
aI64157
aI5861
aI13101
aI27467
aI34707
aI41946
aI56317
aI63557
aI5285
aI19654
aI26894
aI34134
asg16
(lp134
I576
aI574
aI572
aI572
aI573
aI574
aI574
aI575
aI570
aI570
aI572
aI573
aI575
aI571
aI570
aI569
aI573
aI573
aI569
aI571
aI575
aI571
aI570
aI572
aI573
aI571
aI574
aI571
aI575
aI576
asg18
(lp135
I762
aI759
aI760
aI760
aI763
aI760
aI761
aI760
aI762
aI763
aI762
aI763
aI763
aI763
aI758
aI758
aI764
aI763
aI764
aI760
aI762
aI763
aI765
aI761
aI762
aI761
aI759
aI757
aI758
aI759
asg20
(lp136
I516
aI514
aI515
aI515
aI515
aI519
aI518
aI515
aI515
aI518
aI519
aI513
aI511
aI509
aI521
aI515
aI513
aI505
aI519
aI519
aI515
aI512
aI517
aI523
aI515
aI513
aI515
aI519
aI516
aI515
asg22
(lp137
I62511
aI62511
aI62511
aI62511
aI62511
aI62511
aI62512
aI62512
aI62512
aI62512
aI62512
aI62512
aI62620
aI62620
aI62620
aI62620
aI62620
aI62620
aI62620
aI62621
aI62621
aI62621
aI62621
aI62621
aI62621
aI62621
aI62622
aI62622
aI62622
aI62622
asg4
(g5
tp138
Rp139
g8
(F337.68627450980392
F11.196095601099426
tp140
sg10
(F496.51960784313724
F8.1646420765621865
tp141
sg12
(F413.93137254901961
F9.2155663321356247
tp142
sg14
(F34546.098039215685
F18845.488225593319
tp143
sg16
(F358.06862745098039
F28.27777475642192
tp144
sg18
(F743.38235294117646
F20.272189062003857
tp145
sg20
(F517.44117647058829
F22.880582370130103
tp146
sg22
(F62649.539215686273
F4.5668704018402888
tp147
stp148
a(((F24.98779296875
F90.00244140625
tp149
(F-25.00244140625
F90.00732421875
tp150
I8000
F9338.6970000000001
F9339.384
tp151
g4
(g5
tp152
Rp153
g8
(F337.48565776458952
F0.95265885278978057
tp154
sg10
(F496.51483679525222
F7.7762686141184467
tp155
sg12
(F414.13105835806135
F1.1864445249726687
tp156
sg14
(F32839.615232443124
F18847.966376888991
tp157
sg16
(F359.70425321463898
F2.162665798101961
tp158
sg18
(F742.35361028684474
F1.678126081041118
tp159
sg20
(F516.47131552917904
F1.9106961539259304
tp160
sg22
(F63391.392185954501
F99.578707013466712
tp161
sg4
(g5
tp162
Rp163
g8
(lp164
I338
aI337
aI338
aI337
aI337
aI337
aI338
aI338
aI336
aI338
aI339
aI336
aI338
aI339
aI338
aI342
aI337
aI334
aI339
aI342
aI338
aI334
aI341
aI343
aI336
aI335
aI338
aI341
aI336
aI338
asg10
(lp165
I492
aI492
aI492
aI509
aI493
aI492
aI492
aI510
aI504
aI492
aI492
aI492
aI515
aI494
aI492
aI515
aI493
aI492
aI492
aI492
aI515
aI492
aI492
aI492
aI504
aI499
aI492
aI492
aI492
aI507
asg12
(lp166
I415
aI414
aI415
aI412
aI415
aI415
aI415
aI414
aI411
aI414
aI414
aI415
aI412
aI414
aI415
aI407
aI418
aI419
aI413
aI409
aI414
aI419
aI414
aI412
aI416
aI415
aI415
aI414
aI415
aI416
asg14
(lp167
I30441
aI37681
aI44921
aI59286
aI432
aI7712
aI22637
aI29877
aI37117
aI51482
aI58722
aI426
aI14789
aI22029
aI29269
aI15441
aI22679
aI29918
aI44289
aI51529
aI58769
aI7621
aI14861
aI22101
aI36467
aI43707
aI50946
aI65317
aI7021
aI14261
asg16
(lp168
I360
aI363
aI362
aI361
aI362
aI360
aI360
aI363
aI365
aI359
aI359
aI358
aI359
aI355
aI361
aI357
aI359
aI364
aI363
aI359
aI358
aI366
aI360
aI359
aI362
aI366
aI364
aI358
aI362
aI362
asg18
(lp169
I741
aI743
aI740
aI746
aI742
aI742
aI739
aI741
aI743
aI745
aI743
aI745
aI742
aI745
aI745
aI736
aI742
aI743
aI742
aI741
aI744
aI739
aI742
aI740
aI741
aI741
aI743
aI743
aI742
aI744
asg20
(lp170
I518
aI519
aI518
aI517
aI515
aI519
aI519
aI513
aI516
aI517
aI515
aI514
aI517
aI516
aI519
aI531
aI519
aI509
aI514
aI528
aI520
aI507
aI511
aI523
aI515
aI511
aI516
aI520
aI519
aI514
asg22
(lp171
I63575
aI63575
aI63575
aI63575
aI63576
aI63576
aI63576
aI63576
aI63576
aI63576
aI63576
aI63577
aI63577
aI63577
aI63577
aI63599
aI63599
aI63599
aI63599
aI63599
aI63599
aI63600
aI63600
aI63600
aI63600
aI63600
aI63600
aI63601
aI63601
aI63601
asg4
(g5
tp172
Rp173
g8
(F337.43137254901961
F2.0651629756775085
tp174
sg10
(F496.05882352941177
F8.3605323141951491
tp175
sg12
(F414.02941176470586
F6.2362883040188173
tp176
sg14
(F31834.49019607843
F18971.738038743002
tp177
sg16
(F573.88235294117646
F11.802537212809209
tp178
sg18
(F761.45098039215691
F14.891521111008625
tp179
sg20
(F515.39215686274508
F8.8695965188257873
tp180
sg22
(F63629.941176470587
F4.515384441565593
tp181
stp182
a(((F-44.95361328125
F-0.03173828125
tp183
(F44.99755859375
F-0.009765625
tp184
I2000
F9370.2000000000007
F9373.0480000000007
tp185
g4
(g5
tp186
Rp187
g8
(F337.7797797797798
F6.9814247717349103
tp188
sg10
(F496.1906906906907
F7.4361596199461433
tp189
sg12
(F413.65465465465468
F6.1858807761573047
tp190
sg14
(F33098.034034034034
F18813.573557802825
tp191
sg16
(F652.15515515515517
F8.7750186269236092
tp192
sg18
(F537.06106106106108
F20.12494195181268
tp193
sg20
(F711.57057057057057
F21.537702928172326
tp194
sg22
(F64342.544044044043
F105.16563422851019
tp195
sg4
(g5
tp196
Rp197
g8
(lp198
I339
aI339
aI340
aI339
aI339
aI339
aI339
aI338
aI337
aI336
aI337
aI337
aI337
aI338
aI336
aI339
aI338
aI337
aI337
aI339
aI337
aI332
aI337
aI343
aI336
aI334
aI335
aI339
aI337
aI335
aI337
aI339
aI338
asg10
(lp199
I494
aI492
aI492
aI492
aI506
aI493
aI491
aI492
aI492
aI499
aI492
aI492
aI492
aI515
aI496
aI492
aI492
aI491
aI507
aI497
aI492
aI492
aI491
aI509
aI494
aI492
aI491
aI492
aI506
aI493
aI492
aI492
aI492
asg12
(lp200
I415
aI414
aI414
aI413
aI410
aI415
aI415
aI415
aI412
aI412
aI415
aI413
aI414
aI412
aI413
aI412
aI415
aI415
aI414
aI410
aI415
aI418
aI413
aI409
aI415
aI418
aI415
aI411
aI410
aI417
aI415
aI411
aI415
asg14
(lp201
I55657
aI62897
aI4601
aI18970
aI26210
aI33449
aI47815
aI55055
aI62295
aI11138
aI18378
aI25618
aI39981
aI47221
aI54459
aI39521
aI46761
aI54001
aI2853
aI10093
aI17333
aI31702
aI38942
aI46182
aI60545
aI2247
aI9487
aI23857
aI31097
aI38337
aI52703
aI59943
aI1665
asg16
(lp202
I652
aI655
aI651
aI654
aI652
aI651
aI652
aI653
aI652
aI652
aI651
aI649
aI650
aI655
aI651
aI654
aI651
aI651
aI652
aI650
aI650
aI655
aI654
aI649
aI652
aI655
aI657
aI652
aI652
aI650
aI654
aI653
aI656
asg18
(lp203
I535
aI534
aI535
aI535
aI536
aI535
aI536
aI537
aI536
aI536
aI537
aI536
aI535
aI537
aI536
aI532
aI536
aI535
aI537
aI534
aI532
aI541
aI540
aI534
aI535
aI539
aI540
aI534
aI537
aI537
aI540
aI531
aI534
asg20
(lp204
I709
aI715
aI714
aI717
aI716
aI716
aI716
aI713
aI715
aI717
aI714
aI713
aI713
aI719
aI716
aI716
aI713
aI713
aI713
aI721
aI722
aI704
aI710
aI718
aI716
aI705
aI704
aI714
aI716
aI710
aI708
aI712
aI710
asg22
(lp205
I64527
aI64527
aI64528
aI64528
aI64528
aI64528
aI64528
aI64528
aI64528
aI64529
aI64529
aI64529
aI64529
aI64529
aI64529
aI64583
aI64583
aI64583
aI64584
aI64584
aI64584
aI64584
aI64584
aI64584
aI64584
aI64585
aI64585
aI64585
aI64585
aI64585
aI64585
aI64585
aI64586
asg4
(g5
tp206
Rp207
g8
(F357.52941176470586
F60.557330781819346
tp208
sg10
(F496.65686274509807
F7.7148889639617675
tp209
sg12
(F415.4019607843137
F31.376667928143206
tp210
sg14
(F30476.058823529413
F19206.517072477334
tp211
sg16
(F334.71568627450978
F99.082593537795987
tp212
sg18
(F531.78431372549016
F24.280076335999606
tp213
sg20
(F700.86274509803923
F66.946282126072177
tp214
sg22
(F64670.245098039217
F25.382731614349076
tp215
stp216
a(((F44.99755859375
F-0.009765625
tp217
(F-44.99755859375
F-0.0048828125
tp218
I2000
F9398.4169999999995
F9401.2700000000004
tp219
g4
(g5
tp220
Rp221
g8
(F337.37542829172787
F1.0374878589113816
tp222
sg10
(F496.52863436123346
F7.8394647447404662
tp223
sg12
(F413.75770925110135
F1.3632951642950604
tp224
sg14
(F32755.711698482624
F18888.632465782324
tp225
sg16
(F294.12432697014196
F1.9627491470350837
tp226
sg18
(F531.22858541360745
F1.8908350733261878
tp227
sg20
(F689.15761135584921
F1.7147611629666819
tp228
sg22
(F65266.821341164956
F102.28174066557835
tp229
sg4
(g5
tp230
Rp231
g8
(lp232
I337
aI337
aI337
aI338
aI336
aI337
aI337
aI337
aI339
aI337
aI336
aI337
aI337
aI338
aI339
aI338
aI340
aI336
aI339
aI339
aI340
aI337
aI337
aI339
aI339
aI337
aI336
aI339
aI336
aI337
aI338
aI336
aI337
asg10
(lp233
I492
aI492
aI492
aI511
aI496
aI492
aI492
aI492
aI513
aI496
aI504
aI518
aI491
aI516
aI496
aI492
aI492
aI492
aI518
aI492
aI492
aI491
aI504
aI508
aI492
aI492
aI492
aI512
aI495
aI492
aI492
aI492
aI515
asg12
(lp234
I415
aI414
aI415
aI413
aI412
aI414
aI414
aI414
aI413
aI413
aI412
aI412
aI414
aI412
aI415
aI414
aI414
aI415
aI412
aI414
aI415
aI415
aI414
aI410
aI414
aI415
aI414
aI412
aI414
aI415
aI415
aI414
aI412
asg14
(lp235
I59793
aI1519
aI8761
aI23130
aI30370
aI37610
aI51973
aI59211
aI356
aI44141
aI51381
aI58621
aI39829
aI47069
aI54309
aI3142
aI10382
aI17622
aI31985
aI39223
aI46462
aI60833
aI2537
aI9777
aI24142
aI31382
aI38622
aI52985
aI60225
aI1929
aI16298
aI23538
aI30778
asg16
(lp236
I295
aI295
aI293
aI294
aI295
aI295
aI295
aI294
aI294
aI294
aI295
aI287
aI298
aI293
aI295
aI292
aI293
aI293
aI294
aI295
aI294
aI293
aI292
aI290
aI295
aI289
aI291
aI292
aI292
aI295
aI295
aI294
aI291
asg18
(lp237
I531
aI529
aI530
aI533
aI531
aI527
aI529
aI531
aI527
aI532
aI529
aI528
aI530
aI530
aI532
aI528
aI530
aI531
aI534
aI533
aI531
aI529
aI532
aI532
aI530
aI527
aI534
aI531
aI531
aI532
aI530
aI529
aI532
asg20
(lp238
I689
aI689
aI690
aI690
aI686
aI689
aI690
aI686
aI690
aI689
aI688
aI691
aI690
aI691
aI687
aI691
aI691
aI686
aI688
aI690
aI690
aI688
aI692
aI689
aI689
aI689
aI687
aI689
aI689
aI687
aI691
aI688
aI693
asg22
(lp239
I65452
aI65453
aI65453
aI65453
aI65453
aI65453
aI65453
aI65453
aI65454
aI65454
aI65454
aI65454
aI65465
aI65465
aI65465
aI65466
aI65466
aI65466
aI65466
aI65466
aI65466
aI65466
aI65467
aI65467
aI65467
aI65467
aI65467
aI65467
aI65467
aI65468
aI65468
aI65468
aI65468
asg4
(g5
tp240
Rp241
g8
(F319.5980392156863
F56.953414021499583
tp242
sg10
(F495.95098039215685
F7.1103038336950615
tp243
sg12
(F413.4019607843137
F21.804056019475439
tp244
sg14
(F32290.911764705881
F18964.144665245822
tp245
sg16
(F620.67647058823525
F93.941592384311406
tp246
sg18
(F535.39215686274508
F16.358817771384178
tp247
sg20
(F715.54901960784309
F70.798613514033022
tp248
sg22
(F7728.5392156862745
F21091.868863854404
tp249
stp250
a(((F-0.02685546875
F-90.01708984375
tp251
(F-0.02197265625
F90.009765625
tp252
I2000
F9428.3510000000006
F9433.9060000000009
tp253
g4
(g5
tp254
Rp255
g8
(F336.95802098950526
F1.1200935571508184
tp256
sg10
(F495.8535732133933
F7.094567078740198
tp257
sg12
(F414.00699650174914
F2.281523252196334
tp258
sg14
(F32986.952023988008
F18796.03356460654
tp259
sg16
(F472.24187906046978
F15.815890555714315
tp260
sg18
(F284.51774112943531
F22.091419028609049
tp261
sg20
(F534.66466766616691
F15.862256787947629
tp262
sg22
(F671.70814592703653
F102.53378072867227
tp263
sg4
(g5
tp264
Rp265
g8
(lp266
I339
aI342
aI336
aI334
aI339
aI340
aI337
aI335
aI337
aI338
aI335
aI335
aI337
aI336
aI336
aI336
aI336
aI337
aI336
aI336
aI337
aI336
aI336
aI337
aI337
aI336
aI336
aI336
aI337
aI337
aI336
aI336
aI336
aI337
aI337
aI336
asg10
(lp267
I513
aI493
aI492
aI491
aI491
aI513
aI492
aI491
aI492
aI503
aI499
aI492
aI509
aI496
aI492
aI492
aI492
aI510
aI493
aI491
aI491
aI495
aI502
aI492
aI492
aI492
aI495
aI496
aI492
aI492
aI492
aI514
aI494
aI492
aI492
aI491
asg12
(lp268
I410
aI411
aI415
aI417
aI414
aI409
aI415
aI416
aI415
aI412
aI412
aI417
aI414
aI411
aI414
aI414
aI413
aI413
aI415
aI414
aI414
aI414
aI412
aI415
aI415
aI415
aI415
aI413
aI414
aI414
aI414
aI412
aI412
aI414
aI415
aI413
asg14
(lp269
I12733
aI19971
aI27211
aI41581
aI48821
aI56061
aI4891
aI12131
aI19370
aI33741
aI40981
aI48221
aI23422
aI30662
aI37901
aI52267
aI59507
aI652
aI15590
aI22830
aI30070
aI44433
aI51673
aI58911
aI7746
aI14986
aI22225
aI36591
aI43831
aI51071
aI65441
aI7165
aI14403
aI28774
aI36014
aI43253
asg16
(lp270
I472
aI470
aI470
aI477
aI473
aI468
aI470
aI468
aI473
aI469
aI472
aI474
aI474
aI472
aI470
aI471
aI472
aI471
aI471
aI475
aI470
aI471
aI470
aI469
aI467
aI468
aI472
aI471
aI470
aI471
aI473
aI473
aI475
aI467
aI472
aI472
asg18
(lp271
I283
aI280
aI282
aI287
aI286
aI284
aI282
aI284
aI288
aI281
aI281
aI282
aI284
aI286
aI280
aI282
aI284
aI284
aI283
aI284
aI281
aI283
aI281
aI280
aI283
aI282
aI282
aI283
aI282
aI280
aI284
aI281
aI280
aI283
aI283
aI284
asg20
(lp272
I536
aI540
aI536
aI526
aI530
aI537
aI534
aI526
aI531
aI535
aI537
aI532
aI535
aI534
aI530
aI533
aI531
aI534
aI532
aI535
aI531
aI532
aI533
aI531
aI537
aI535
aI536
aI537
aI536
aI534
aI533
aI530
aI533
aI531
aI532
aI536
asg22
(lp273
I858
aI858
aI858
aI858
aI858
aI858
aI859
aI859
aI859
aI859
aI859
aI859
aI864
aI864
aI864
aI864
aI864
aI865
aI865
aI865
aI865
aI865
aI865
aI865
aI866
aI866
aI866
aI866
aI866
aI866
aI867
aI867
aI867
aI867
aI867
aI867
asg4
(g5
tp274
Rp275
g8
(F336.8235294117647
F2.2290935672348744
tp276
sg10
(F496.23529411764707
F7.9399418067065834
tp277
sg12
(F432.45098039215685
F50.658725019560642
tp278
sg14
(F32558.411764705881
F18658.543145193249
tp279
sg16
(F464.85294117647061
F3.9714595993766446
tp280
sg18
(F719.32352941176475
F151.94517598525587
tp281
sg20
(F529.92156862745094
F40.279826672356634
tp282
sg22
(F1028.186274509804
F50.642485920799508
tp283
stp284
a(((F-0.02197265625
F90.009765625
tp285
(F-0.02197265625
F-90.0048828125
tp286
I2000
F9465.7669999999998
F9471.2810000000009
tp287
g4
(g5
tp288
Rp289
g8
(F337.49606299212599
F0.92733934093722015
tp290
sg10
(F496.6530183727034
F8.1286133138738634
tp291
sg12
(F414.16377952755903
F1.1151311464135381
tp292
sg14
(F33009.889238845142
F18902.989932223885
tp293
sg16
(F465.56115485564305
F1.9466810653637032
tp294
sg18
(F774.53070866141729
F1.6696226086392274
tp295
sg20
(F515.67664041994749
F1.864548455844762
tp296
sg22
(F1818.3433070866142
F108.85731824753357
tp297
sg4
(g5
tp298
Rp299
g8
(lp300
I339
aI338
aI337
aI337
aI339
aI338
aI336
aI337
aI338
aI339
aI337
aI337
aI339
aI335
aI337
aI340
aI337
aI336
aI337
aI339
aI339
aI337
aI338
aI339
aI336
aI338
aI337
aI344
aI335
aI347
aI346
aI339
aI336
aI329
aI355
aI341
asg10
(lp301
I491
aI492
aI497
aI497
aI492
aI492
aI492
aI517
aI495
aI492
aI492
aI492
aI508
aI497
aI492
aI492
aI492
aI510
aI494
aI492
aI492
aI492
aI492
aI492
aI498
aI492
aI492
aI492
aI519
aI496
aI492
aI492
aI492
aI519
aI493
aI493
asg12
(lp302
I415
aI414
aI415
aI412
aI414
aI413
aI413
aI414
aI415
aI415
aI413
aI414
aI415
aI414
aI416
aI413
aI415
aI415
aI416
aI414
aI414
aI414
aI414
aI414
aI413
aI415
aI415
aI396
aI332
aI329
aI293
aI357
aI317
aI281
aI287
aI216
asg14
(lp303
I20137
aI27377
aI34617
aI48983
aI56223
aI63462
aI12306
aI19546
aI26786
aI41149
aI48387
aI55627
aI11081
aI18319
aI25559
aI39929
aI47169
aI54409
aI3239
aI10479
aI17718
aI60934
aI2108
aI9364
aI24290
aI31530
aI38769
aI53135
aI60375
aI2079
aI16449
aI23689
aI30929
aI45295
aI52535
aI59774
asg16
(lp304
I463
aI470
aI467
aI468
aI467
aI465
aI467
aI465
aI463
aI467
aI464
aI465
aI464
aI468
aI467
aI465
aI470
aI472
aI469
aI465
aI469
aI469
aI463
aI466
aI467
aI457
aI462
aI480
aI471
aI486
aI449
aI450
aI463
aI463
aI467
aI479
asg18
(lp305
I775
aI774
aI772
aI776
aI776
aI774
aI774
aI775
aI775
aI775
aI776
aI775
aI773
aI773
aI773
aI777
aI774
aI772
aI773
aI771
aI776
aI775
aI777
aI776
aI777
aI779
aI777
aI824
aI731
aI790
aI755
aI816
aI785
aI776
aI822
aI731
asg20
(lp306
I516
aI516
aI516
aI518
aI519
aI518
aI516
aI513
aI518
aI516
aI516
aI516
aI519
aI515
aI511
aI519
aI518
aI516
aI515
aI518
aI519
aI514
aI518
aI518
aI515
aI516
aI513
aI490
aI496
aI478
aI573
aI500
aI463
aI487
aI464
aI581
asg22
(lp307
I2004
aI2004
aI2004
aI2004
aI2004
aI2004
aI2005
aI2005
aI2005
aI2005
aI2005
aI2005
aI2034
aI2034
aI2034
aI2034
aI2034
aI2034
aI2035
aI2035
aI2035
aI2035
aI2036
aI2036
aI2036
aI2036
aI2036
aI2036
aI2036
aI2037
aI2037
aI2037
aI2037
aI2037
aI2037
aI2037
asg4
(g5
tp308
Rp309
g8
(F337.93137254901961
F2.2546675069928992
tp310
sg10
(F496.02941176470586
F7.4300078937399512
tp311
sg12
(F391.63725490196077
F53.902742702907091
tp312
sg14
(F32389.666666666668
F18966.921441998118
tp313
sg16
(F470.99019607843138
F3.90448484724137
tp314
sg18
(F351.50980392156862
F166.87401289114163
tp315
sg20
(F546.56862745098044
F32.830076419709272
tp316
sg22
(F2190.9313725490197
F54.556727053073473
tp317
stp318
a(((F-44.9462890625
F90.0390625
tp319
(F45.009765625
F89.9951171875
tp320
I16000
F9517.4179999999997
F9518.3130000000001
tp321
g4
(g5
tp322
Rp323
g8
(F337.40450771055754
F0.90540938663891524
tp324
sg10
(F496.93594306049823
F8.5757071529704021
tp325
sg12
(F413.94306049822063
F1.1113919456421286
tp326
sg14
(F32713.23724792408
F18895.937764709397
tp327
sg16
(F648.00237247924076
F21.214601253673955
tp328
sg18
(F711.59905100830372
F51.772594270387032
tp329
sg20
(F516.7888493475682
F2.6887611932432334
tp330
sg22
(F2870.3689205219453
F83.015300121315619
tp331
sg4
(g5
tp332
Rp333
g8
(lp334
I339
aI338
aI338
aI338
aI337
aI338
aI338
aI337
aI338
aI337
aI338
aI337
aI337
aI335
aI337
aI336
aI338
aI337
aI336
aI337
aI339
aI337
aI337
aI338
aI337
aI337
aI336
aI339
aI336
aI337
asg10
(lp335
I492
aI491
aI492
aI512
aI497
aI492
aI492
aI492
aI515
aI494
aI492
aI491
aI496
aI504
aI493
aI492
aI491
aI492
aI520
aI492
aI492
aI492
aI505
aI509
aI492
aI492
aI492
aI515
aI495
aI492
asg12
(lp336
I415
aI414
aI415
aI414
aI413
aI415
aI414
aI415
aI414
aI415
aI415
aI414
aI413
aI411
aI415
aI416
aI414
aI414
aI412
aI413
aI415
aI415
aI415
aI411
aI415
aI415
aI414
aI414
aI414
aI415
asg14
(lp337
I8074
aI15314
aI22554
aI36917
aI44155
aI51394
aI229
aI7469
aI14709
aI29074
aI36314
aI43554
aI57917
aI65157
aI6861
aI58969
aI673
aI7913
aI22278
aI29518
aI36758
aI51121
aI58361
aI65
aI14434
aI21674
aI28914
aI43277
aI50515
aI57754
asg16
(lp338
I650
aI649
aI647
aI651
aI651
aI650
aI652
aI652
aI655
aI652
aI651
aI650
aI651
aI650
aI646
aI647
aI647
aI649
aI652
aI648
aI653
aI649
aI649
aI651
aI652
aI649
aI652
aI651
aI653
aI651
asg18
(lp339
I718
aI719
aI716
aI719
aI720
aI719
aI717
aI719
aI719
aI716
aI721
aI719
aI716
aI716
aI718
aI716
aI718
aI716
aI721
aI720
aI716
aI719
aI723
aI718
aI717
aI719
aI721
aI718
aI719
aI721
asg20
(lp340
I516
aI515
aI519
aI515
aI519
aI516
aI515
aI515
aI515
aI515
aI515
aI516
aI519
aI518
aI511
aI514
aI516
aI518
aI518
aI516
aI517
aI516
aI514
aI515
aI517
aI512
aI515
aI520
aI516
aI512
asg22
(lp341
I2971
aI2971
aI2971
aI2971
aI2971
aI2971
aI2972
aI2972
aI2972
aI2972
aI2972
aI2972
aI2972
aI2973
aI2973
aI3647
aI3648
aI3648
aI3648
aI3648
aI3648
aI3648
aI3648
aI3649
aI3649
aI3649
aI3649
aI3649
aI3649
aI3649
asg4
(g5
tp342
Rp343
g8
(F337.05882352941177
F24.489222731407104
tp344
sg10
(F499.36274509803923
F12.880894208155416
tp345
sg12
(F412.22549019607845
F34.138388162424064
tp346
sg14
(F32851.470588235294
F18390.016214424119
tp347
sg16
(F289.13725490196077
F54.053357664601897
tp348
sg18
(F688.68627450980387
F80.78851359728047
tp349
sg20
(F518.50980392156862
F50.861546994823605
tp350
sg22
(F3682.7843137254904
F5.4532369429980125
tp351
stp352
a(((F45.009765625
F89.9951171875
tp353
(F-45.02197265625
F90.0
tp354
I16000
F9561.5580000000009
F9562.4480000000003
tp355
g4
(g5
tp356
Rp357
g8
(F336.97314049586777
F0.89840403310938544
tp358
sg10
(F496.77881136950907
F8.3410919313858578
tp359
sg12
(F414.04547803617572
F1.0146212574301618
tp360
sg14
(F32919.653766769865
F18994.117795139173
tp361
sg16
(F291.80578512396693
F2.1070247528684165
tp362
sg18
(F687.33074935400521
F1.6742957813759176
tp363
sg20
(F517.9348837209302
F1.7658540399351321
tp364
sg22
(F4761.0784313725489
F538.73169869400249
tp365
sg4
(g5
tp366
Rp367
g8
(lp368
I337
aI337
aI337
aI336
aI336
aI338
aI335
aI336
aI338
aI337
aI337
aI337
aI337
aI335
aI337
aI337
aI337
aI337
aI338
aI335
aI335
aI334
aI338
aI339
aI336
aI336
aI336
asg10
(lp369
I492
aI492
aI492
aI519
aI494
aI492
aI492
aI492
aI518
aI492
aI492
aI492
aI506
aI501
aI493
aI496
aI492
aI492
aI492
aI519
aI494
aI505
aI492
aI492
aI492
aI512
aI502
asg12
(lp370
I415
aI413
aI415
aI411
aI415
aI414
aI414
aI414
aI412
aI415
aI415
aI414
aI415
aI412
aI415
aI415
aI414
aI415
aI413
aI413
aI415
aI413
aI413
aI412
aI415
aI415
aI411
asg14
(lp371
I52961
aI60201
aI1905
aI15352
aI22608
aI29864
aI43712
aI50972
aI58228
aI6560
aI13816
aI21072
aI34920
aI42180
aI49436
aI20361
aI27601
aI34841
aI49207
aI56447
aI63686
aI41373
aI48611
aI55851
aI4681
aI11921
aI19161
asg16
(lp372
I291
aI294
aI293
aI292
aI291
aI293
aI292
aI292
aI292
aI294
aI287
aI290
aI293
aI291
aI289
aI294
aI290
aI294
aI288
aI292
aI295
aI295
aI293
aI291
aI293
aI295
aI294
asg18
(lp373
I687
aI686
aI688
aI684
aI686
aI687
aI689
aI689
aI687
aI688
aI688
aI686
aI687
aI688
aI688
aI686
aI685
aI684
aI688
aI687
aI686
aI686
aI682
aI685
aI691
aI690
aI687
asg20
(lp374
I518
aI515
aI515
aI519
aI519
aI516
aI516
aI516
aI518
aI516
aI519
aI519
aI518
aI516
aI516
aI517
aI517
aI517
aI521
aI519
aI514
aI514
aI515
aI523
aI514
aI514
aI518
asg22
(lp375
I4929
aI4929
aI4930
aI4930
aI4930
aI4930
aI4930
aI4930
aI4930
aI4931
aI4931
aI4931
aI4931
aI4931
aI4931
aI5027
aI5027
aI5027
aI5027
aI5027
aI5027
aI5028
aI5028
aI5028
aI5029
aI5029
aI5029
asg4
(g5
tp376
Rp377
g8
(F338.04901960784315
F8.9062408731075475
tp378
sg10
(F495.38235294117646
F11.097645146471439
tp379
sg12
(F413.23529411764707
F13.471958145943146
tp380
sg14
(F34247.862745098042
F19248.254520324703
tp381
sg16
(F650.35294117647061
F41.536812649443505
tp382
sg18
(F718.00980392156862
F48.391681163645337
tp383
sg20
(F518.05882352941171
F16.976236868745694
tp384
sg22
(F5063.4411764705883
F5.0924271523696376
tp385
stp386
a.