(ccollections
defaultdict
p0
(c__builtin__
list
p1
tp2
Rp3
S'a'
p4
(lp5
I335
aI337
aI336
aI337
aI337
aI336
aI336
aI336
aI337
aI336
aI336
aI335
aI336
aI337
aI335
aI335
aI335
aI335
aI336
aI335
aI335
aI335
aI335
aI336
aI335
aI337
aI336
aI336
aI336
aI337
aI335
aI335
aI335
aI337
aI335
aI335
aI336
aI335
aI336
aI336
aI335
aI335
aI335
aI335
aI337
aI335
aI336
aI336
aI336
aI336
aI335
aI336
aI336
aI336
aI335
aI336
aI335
aI334
aI337
aI335
aI335
aI336
aI335
aI335
aI335
aI335
aI336
aI336
aI336
aI336
aI336
aI337
aI337
aI336
aI337
aI336
aI336
aI337
aI336
aI335
aI336
aI336
aI335
aI337
aI337
aI334
aI336
aI335
aI337
aI336
aI337
aI337
aI336
aI337
aI336
aI337
aI337
aI335
aI336
aI336
aI336
aI337
aI336
aI336
aI337
aI336
aI334
aI337
aI336
aI335
aI337
aI337
aI336
aI336
aI336
aI336
aI337
aI337
aI336
aI337
aI336
aI336
aI337
aI336
aI335
aI336
aI336
aI336
aI336
aI337
aI335
aI336
aI336
aI336
aI336
aI335
aI337
aI336
aI336
aI336
aI337
aI336
aI335
aI337
aI337
aI336
aI336
aI336
aI335
aI336
aI335
aI335
aI337
aI336
aI337
aI336
aI336
aI337
aI337
aI336
aI336
aI337
aI336
aI336
aI336
aI335
aI336
aI336
aI335
aI335
aI336
aI335
aI337
aI337
aI335
aI337
aI337
aI336
aI336
aI337
aI338
aI336
aI336
aI337
aI335
aI338
aI336
aI335
aI337
aI336
aI336
aI336
aI336
aI335
aI336
aI336
aI335
aI337
aI335
aI335
aI336
aI335
aI336
aI335
aI335
aI338
aI336
aI337
aI335
aI336
aI336
aI335
aI334
aI335
aI336
aI335
aI335
aI335
aI335
aI335
aI335
aI336
aI335
aI337
aI335
aI335
aI336
aI337
aI336
aI337
aI336
aI335
aI336
aI336
aI336
aI334
aI335
aI335
aI336
aI336
aI336
aI336
aI336
aI336
aI336
aI335
aI337
aI336
aI336
aI337
aI336
aI335
aI335
aI336
aI336
aI335
aI336
aI336
aI335
aI336
aI336
aI335
aI336
aI335
aI336
aI336
aI335
aI336
aI336
aI335
aI337
aI336
aI337
aI336
aI337
aI335
aI336
aI335
aI335
aI335
aI335
aI335
aI334
aI336
aI335
aI335
aI335
aI335
aI336
aI336
aI335
aI336
aI335
aI336
aI336
aI335
aI335
aI337
aI336
aI336
aI337
aI335
aI336
aI336
aI335
aI337
aI335
aI334
aI336
aI335
aI334
aI336
aI336
aI335
aI337
aI335
aI335
aI336
aI336
aI336
aI335
aI335
aI336
aI335
aI335
aI336
aI335
aI336
aI335
aI335
aI336
aI336
aI336
aI335
aI337
aI335
aI337
aI337
aI335
aI336
aI335
aI336
aI336
aI336
aI335
aI335
aI337
aI335
aI335
aI335
aI335
aI334
aI335
aI335
aI336
aI336
aI336
aI337
aI336
aI336
aI337
aI335
aI336
aI335
aI335
aI336
aI335
aI335
aI335
aI335
aI335
aI335
aI334
aI336
aI335
aI335
aI337
aI336
aI336
aI335
aI335
aI335
aI336
aI335
aI336
aI336
aI335
aI335
aI336
aI335
aI335
aI335
aI335
aI335
aI335
aI336
aI334
aI335
aI335
aI335
aI335
aI335
aI336
aI335
aI335
aI335
aI336
aI335
aI335
aI338
aI335
aI336
aI335
aI336
aI337
aI336
aI336
aI335
aI336
aI334
aI335
aI336
aI336
aI336
aI337
aI336
aI337
aI335
aI336
aI336
aI336
aI336
aI335
aI336
aI335
aI335
aI336
aI335
aI335
aI336
aI336
aI335
aI335
aI335
aI336
aI336
aI335
aI336
aI337
aI336
aI336
aI336
aI335
aI335
aI335
aI334
aI337
aI335
aI335
aI335
aI336
aI335
aI337
aI336
aI334
aI336
aI336
aI337
aI336
aI335
aI335
aI335
aI336
aI335
aI335
aI336
aI337
aI335
aI335
aI336
aI336
aI335
aI336
aI335
aI336
aI336
aI336
aI336
aI337
aI335
aI336
aI336
aI336
aI336
aI336
aI336
aI337
aI337
aI337
aI336
aI335
aI336
aI335
aI336
aI335
aI335
aI336
aI336
aI335
aI336
aI336
aI335
aI335
aI335
aI335
aI336
aI336
aI336
aI335
aI335
aI336
aI335
aI335
aI335
aI335
aI336
aI336
aI335
aI336
aI335
aI335
aI337
aI335
aI335
aI337
aI335
aI335
aI336
aI335
aI335
aI335
aI336
aI336
aI336
aI336
aI337
aI336
aI336
aI336
aI336
aI337
aI336
aI335
aI335
aI337
aI335
aI336
aI334
aI336
aI336
aI336
aI336
aI336
aI336
aI336
aI336
aI337
aI335
aI337
aI335
aI336
aI335
aI336
aI334
aI336
aI336
aI335
aI337
aI335
aI336
aI335
aI335
aI334
aI337
aI336
aI335
aI335
aI335
aI336
aI336
aI335
aI336
aI335
aI336
aI336
aI336
aI335
aI335
aI335
aI335
aI334
aI336
aI335
aI334
aI335
aI336
aI335
aI336
aI335
aI336
aI336
aI335
aI336
aI335
aI335
aI336
aI335
aI336
aI335
aI335
aI336
aI335
aI335
aI336
aI336
aI336
aI336
aI337
aI336
aI336
aI337
aI335
aI335
aI336
aI336
aI335
aI335
aI336
aI335
aI336
aI335
aI335
aI337
aI336
aI334
aI337
aI336
aI336
aI336
aI336
aI336
aI335
aI337
aI335
aI335
aI336
aI335
aI335
aI336
aI335
aI335
aI336
aI335
aI335
aI336
aI335
aI337
aI336
aI336
aI336
aI336
aI335
aI337
aI335
aI337
aI335
aI336
aI335
aI335
aI336
aI335
aI336
aI336
aI335
aI336
aI335
aI334
aI335
aI335
aI336
aI336
aI336
aI336
aI335
aI336
aI336
aI336
aI337
aI336
aI335
aI336
aI336
aI337
aI335
aI334
aI336
aI336
aI336
aI337
aI336
aI336
aI336
aI336
aI336
aI335
aI335
aI336
aI336
aI335
aI336
aI335
aI335
aI335
aI336
aI335
aI335
aI336
aI335
aI335
aI334
aI336
aI335
aI335
aI336
aI335
aI337
aI336
aI336
aI335
aI336
aI335
aI336
aI335
aI335
aI336
aI334
aI335
aI335
aI335
aI335
aI335
aI335
aI335
aI335
aI336
aI336
aI335
aI336
aI336
aI337
aI336
aI336
aI336
aI335
aI336
aI335
aI335
aI335
aI335
aI336
aI336
aI335
aI335
aI335
aI335
aI337
aI335
aI335
aI336
aI336
aI335
aI335
aI337
aI337
aI335
aI336
aI336
aI335
aI335
aI334
aI335
aI335
aI335
aI337
aI335
aI335
aI335
aI336
aI336
aI336
aI335
aI335
aI336
aI336
aI335
aI335
aI334
aI335
aI336
aI335
aI335
aI335
aI335
aI335
aI336
aI335
aI336
aI336
aI335
aI336
aI336
aI336
aI337
aI335
aI336
aI336
aI336
aI335
aI335
aI335
aI336
aI335
aI335
aI336
aI336
aI336
aI336
aI335
aI335
aI335
aI335
aI335
aI336
aI336
aI335
aI335
aI337
aI336
aI336
aI336
aI337
aI336
aI336
aI336
aI336
aI335
aI337
aI335
aI337
aI336
aI335
aI336
aI336
aI334
aI336
aI336
aI335
aI336
aI335
aI336
aI335
aI335
aI336
aI336
aI336
aI337
aI337
aI335
aI335
aI335
aI336
aI335
aI337
aI335
aI334
aI335
aI335
aI334
aI335
aI335
aI335
aI337
aI335
aI336
aI336
aI336
aI337
aI335
aI335
aI335
aI335
aI337
aI335
aI334
aI335
aI335
aI335
aI336
aI335
aI336
aI335
aI335
aI336
aI335
aI336
aI337
aI336
aI337
aI335
aI336
aI336
aI336
aI336
aI336
aI335
aI336
aI335
aI335
aI336
aI335
aI334
aI336
aI335
aI335
aI337
aI336
aI336
aI337
aI336
aI337
aI336
aI335
aI337
aI336
aI335
aI336
aI335
aI335
aI335
aI335
aI335
aI335
aI335
aI335
aI334
aI337
aI336
aI335
aI336
aI335
aI336
aI335
aI336
aI335
aI336
aI336
aI336
aI335
aI336
aI335
aI336
aI336
aI336
aI334
aI335
aI336
aI335
aI336
aI335
aI336
aI335
aI336
aI336
aI336
aI336
aI335
aI336
aI337
aI336
aI336
aI335
aI335
aI336
aI334
aI335
aI337
aI337
aI335
aI336
aI335
aI335
aI337
aI335
aI335
aI335
aI336
aI336
aI336
aI335
aI335
aI336
aI335
aI337
aI335
aI336
aI335
aI335
aI336
aI337
aI335
aI336
aI334
aI336
aI336
aI336
aI335
aI336
aI336
aI337
aI337
aI335
aI337
aI336
aI335
aI335
aI335
aI336
aI335
aI335
aI337
aI335
aI336
aI336
aI335
aI335
aI336
aI335
aI337
aI336
aI335
aI336
aI336
aI336
aI336
aI335
aI336
aI336
aI336
aI335
aI335
aI336
aI335
aI335
aI335
aI336
aI335
aI336
aI335
aI335
aI337
aI336
aI336
aI335
aI335
aI337
aI335
aI336
aI336
aI337
aI337
aI336
aI337
aI336
aI335
aI336
aI335
aI336
aI337
aI335
aI334
aI336
aI336
aI336
aI336
aI336
aI336
aI336
aI336
aI335
aI336
aI335
aI336
aI335
aI335
aI336
aI335
aI335
aI335
aI337
aI336
aI335
aI336
aI336
aI337
aI335
aI337
aI335
aI336
aI335
aI337
aI337
aI336
aI335
aI336
aI337
aI335
aI335
aI335
aI335
aI336
aI335
aI335
aI336
aI335
aI336
aI336
aI336
aI336
aI336
aI336
aI336
aI336
aI337
aI336
aI336
aI336
aI336
aI337
aI335
aI336
aI338
aI335
aI335
aI338
aI336
aI335
aI337
aI337
aI336
aI338
aI336
aI336
aI336
aI336
aI335
aI336
aI337
aI336
aI335
aI336
aI336
aI336
aI335
aI335
aI337
aI335
aI335
aI336
aI335
aI335
aI335
aI337
aI335
aI337
aI336
aI336
aI335
aI335
aI337
aI336
aI336
aI336
aI336
aI336
aI334
aI335
aI336
aI334
aI337
aI336
aI336
aI335
aI335
aI336
aI336
aI335
aI337
aI335
aI336
aI337
aI336
aI336
aI335
aI336
aI337
aI336
aI335
aI336
aI336
aI334
aI336
aI335
aI335
aI337
aI335
aI335
aI336
aI336
aI335
aI336
aI335
aI336
aI336
aI335
aI337
aI336
aI337
aI335
aI335
aI336
aI335
aI335
aI335
aI337
aI335
aI336
aI336
aI335
aI335
aI336
aI336
aI335
aI335
aI336
aI336
aI336
aI336
aI338
aI337
aI336
aI337
aI335
aI336
aI335
aI336
aI337
aI336
aI335
aI336
aI335
aI335
aI336
aI336
aI336
aI336
aI336
aI335
aI335
aI336
aI336
aI335
aI335
aI334
aI336
aI336
aI335
aI335
aI336
aI335
aI334
aI337
aI336
aI335
aI336
aI335
aI336
aI335
aI335
aI336
aI337
aI336
aI337
aI336
aI335
aI336
aI337
aI336
aI335
aI336
aI336
aI335
aI336
aI335
aI335
aI336
aI336
aI336
aI336
aI335
aI335
aI336
aI335
aI338
aI336
aI336
aI336
aI336
aI336
aI335
aI335
aI336
aI336
aI335
aI336
aI336
aI335
aI335
aI335
aI336
aI335
aI337
aI338
aI336
aI335
aI336
aI336
aI336
aI336
aI336
aI337
aI337
aI336
aI336
aI335
aI336
asS'c'
p6
(lp7
I491
aI506
aI492
aI492
aI504
aI492
aI492
aI502
aI492
aI491
aI497
aI492
aI491
aI492
aI493
aI492
aI491
aI494
aI491
aI491
aI492
aI491
aI499
aI491
aI492
aI505
aI491
aI491
aI504
aI492
aI492
aI500
aI492
aI492
aI491
aI492
aI491
aI491
aI496
aI492
aI492
aI502
aI491
aI492
aI504
aI491
aI492
aI504
aI491
aI491
aI500
aI492
aI492
aI497
aI493
aI492
aI491
aI493
aI492
aI492
aI494
aI492
aI491
aI496
aI491
aI492
aI503
aI492
aI492
aI504
aI491
aI492
aI504
aI492
aI492
aI499
aI492
aI492
aI496
aI492
aI492
aI491
aI493
aI491
aI491
aI494
aI492
aI497
aI491
aI492
aI503
aI492
aI492
aI504
aI491
aI491
aI504
aI492
aI491
aI499
aI492
aI492
aI496
aI492
aI492
aI491
aI492
aI491
aI491
aI494
aI491
aI492
aI497
aI492
aI492
aI504
aI491
aI492
aI505
aI491
aI492
aI492
aI491
aI499
aI492
aI491
aI496
aI492
aI491
aI491
aI494
aI491
aI491
aI497
aI492
aI491
aI505
aI492
aI491
aI502
aI492
aI491
aI492
aI492
aI491
aI492
aI491
aI492
aI494
aI492
aI491
aI496
aI492
aI491
aI499
aI492
aI505
aI491
aI504
aI492
aI491
aI503
aI492
aI491
aI498
aI492
aI491
aI491
aI493
aI491
aI491
aI494
aI492
aI492
aI495
aI492
aI491
aI499
aI491
aI491
aI505
aI492
aI492
aI504
aI492
aI491
aI502
aI492
aI492
aI497
aI492
aI491
aI491
aI492
aI491
aI491
aI494
aI492
aI492
aI496
aI491
aI491
aI491
aI491
aI506
aI492
aI491
aI504
aI492
aI502
aI492
aI492
aI497
aI492
aI491
aI492
aI493
aI492
aI491
aI494
aI491
aI492
aI495
aI492
aI491
aI503
aI492
aI491
aI503
aI492
aI491
aI498
aI492
aI492
aI491
aI493
aI492
aI495
aI491
aI492
aI496
aI491
aI492
aI503
aI492
aI491
aI505
aI492
aI491
aI504
aI492
aI491
aI499
aI491
aI495
aI492
aI491
aI491
aI493
aI492
aI492
aI495
aI492
aI491
aI496
aI492
aI491
aI503
aI492
aI492
aI505
aI492
aI503
aI492
aI491
aI499
aI492
aI491
aI496
aI492
aI492
aI491
aI494
aI492
aI492
aI494
aI491
aI492
aI496
aI492
aI492
aI504
aI492
aI491
aI505
aI492
aI491
aI504
aI491
aI491
aI499
aI492
aI492
aI495
aI493
aI492
aI491
aI493
aI491
aI492
aI495
aI492
aI492
aI496
aI491
aI491
aI502
aI491
aI492
aI505
aI492
aI491
aI501
aI492
aI491
aI494
aI493
aI491
aI491
aI495
aI491
aI499
aI491
aI492
aI505
aI492
aI491
aI504
aI492
aI492
aI502
aI492
aI499
aI491
aI492
aI493
aI492
aI491
aI494
aI491
aI491
aI496
aI491
aI492
aI499
aI492
aI491
aI505
aI492
aI492
aI504
aI491
aI491
aI502
aI492
aI492
aI498
aI492
aI490
aI491
aI492
aI491
aI493
aI492
aI491
aI496
aI492
aI491
aI499
aI491
aI491
aI505
aI492
aI491
aI504
aI491
aI491
aI502
aI492
aI492
aI498
aI492
aI491
aI491
aI493
aI491
aI491
aI494
aI492
aI492
aI496
aI491
aI491
aI499
aI491
aI492
aI505
aI491
aI492
aI504
aI492
aI492
aI502
aI492
aI492
aI498
aI492
aI491
aI491
aI493
aI491
aI491
aI496
aI491
aI492
aI506
aI492
aI491
aI504
aI491
aI491
aI499
aI492
aI491
aI496
aI492
aI491
aI491
aI494
aI491
aI492
aI494
aI491
aI496
aI491
aI491
aI491
aI492
aI505
aI492
aI491
aI504
aI492
aI492
aI500
aI492
aI491
aI495
aI492
aI491
aI491
aI494
aI492
aI492
aI495
aI491
aI491
aI497
aI491
aI491
aI503
aI492
aI492
aI505
aI492
aI491
aI504
aI492
aI491
aI500
aI492
aI492
aI496
aI492
aI491
aI491
aI492
aI491
aI491
aI494
aI491
aI491
aI497
aI491
aI491
aI502
aI492
aI491
aI505
aI491
aI491
aI503
aI492
aI492
aI500
aI492
aI491
aI496
aI493
aI491
aI491
aI492
aI492
aI491
aI494
aI491
aI491
aI503
aI491
aI491
aI504
aI491
aI491
aI499
aI492
aI491
aI494
aI493
aI492
aI491
aI493
aI491
aI492
aI495
aI492
aI491
aI499
aI492
aI492
aI505
aI491
aI491
aI504
aI492
aI492
aI502
aI491
aI491
aI497
aI492
aI491
aI492
aI493
aI492
aI492
aI491
aI492
aI496
aI492
aI491
aI499
aI492
aI492
aI505
aI491
aI491
aI504
aI492
aI491
aI502
aI492
aI491
aI497
aI492
aI491
aI492
aI493
aI491
aI492
aI493
aI491
aI491
aI496
aI492
aI491
aI499
aI491
aI492
aI505
aI492
aI492
aI504
aI492
aI492
aI502
aI492
aI498
aI492
aI491
aI492
aI492
aI491
aI491
aI494
aI492
aI492
aI496
aI491
aI491
aI499
aI492
aI492
aI505
aI491
aI492
aI502
aI491
aI492
aI496
aI492
aI491
aI491
aI494
aI491
aI491
aI492
aI491
aI504
aI492
aI491
aI505
aI492
aI491
aI504
aI492
aI500
aI492
aI491
aI495
aI491
aI491
aI494
aI491
aI492
aI494
aI491
aI492
aI496
aI491
aI491
aI503
aI492
aI505
aI492
aI491
aI503
aI499
aI492
aI491
aI496
aI492
aI492
aI491
aI492
aI492
aI494
aI492
aI496
aI491
aI491
aI504
aI492
aI505
aI492
aI504
aI492
aI492
aI499
aI492
aI491
aI492
aI491
aI491
aI493
aI491
aI492
aI495
aI491
aI496
aI491
aI492
aI504
aI492
aI492
aI505
aI492
aI491
aI504
aI492
aI491
aI500
aI492
aI491
aI491
aI494
aI491
aI492
aI496
aI491
aI491
aI505
aI491
aI491
aI504
aI491
aI502
aI492
aI492
aI498
aI492
aI492
aI492
aI494
aI492
aI492
aI494
aI492
aI491
aI496
aI491
aI499
aI491
aI506
aI491
aI492
aI504
aI492
aI491
aI502
aI492
aI491
aI497
aI492
aI492
aI492
aI492
aI492
aI491
aI491
aI491
aI495
aI491
aI491
aI498
aI491
aI492
aI505
aI492
aI491
aI504
aI491
aI491
aI502
aI492
aI499
aI492
aI491
aI491
aI492
aI491
aI491
aI494
aI492
aI491
aI496
aI491
aI491
aI499
aI492
aI492
aI506
aI492
aI491
aI505
aI492
aI492
aI502
aI492
aI499
aI492
aI492
aI491
aI492
aI492
aI492
aI494
aI491
aI491
aI500
aI492
aI491
aI504
aI492
aI491
aI499
aI491
aI496
aI492
aI492
aI492
aI493
aI491
aI491
aI494
aI491
aI491
aI496
aI491
aI491
aI502
aI491
aI491
aI505
aI491
aI491
aI504
aI492
aI491
aI500
aI492
aI492
aI496
aI492
aI491
aI492
aI493
aI491
aI492
aI494
aI492
aI491
aI496
aI492
aI492
aI503
aI491
aI492
aI505
aI492
aI491
aI504
aI492
aI492
aI499
aI492
aI492
aI496
aI492
aI491
aI491
aI493
aI492
aI491
aI495
aI491
aI491
aI497
aI492
aI491
aI502
aI491
aI491
aI505
aI491
aI491
aI504
aI491
aI499
aI492
aI491
aI496
aI492
aI491
aI491
aI494
aI492
aI492
aI494
aI491
aI491
aI496
aI491
aI491
aI505
aI491
aI491
aI503
aI492
aI491
aI497
aI493
aI491
aI492
aI494
aI491
aI491
aI496
aI491
aI499
aI492
aI491
aI505
aI491
aI491
aI504
aI492
aI491
aI502
aI492
aI491
aI497
aI492
aI491
aI493
aI492
aI491
aI491
aI493
aI491
aI491
aI495
aI491
aI491
aI500
aI491
aI491
aI505
aI491
aI491
aI504
aI492
aI492
aI503
aI490
aI497
aI492
aI492
aI492
aI493
aI492
aI491
aI494
aI491
aI491
aI495
aI491
aI491
aI499
aI491
aI492
aI505
aI491
aI492
aI504
aI492
aI491
aI502
aI491
aI491
aI497
aI492
aI491
aI492
aI492
aI491
aI491
aI494
aI492
aI492
aI492
aI491
aI499
aI492
aI491
aI505
aI491
aI492
aI504
aI491
aI491
aI499
aI492
aI492
aI491
aI493
aI491
aI491
aI495
aI491
aI492
aI503
aI491
aI491
aI505
aI492
aI492
aI503
aI492
aI491
aI499
aI492
aI491
aI496
aI492
aI492
aI492
aI493
aI492
aI491
aI494
aI491
aI491
aI496
aI492
aI491
aI502
aI492
aI491
aI505
aI492
aI492
aI504
aI492
aI491
aI500
aI492
aI491
aI495
aI492
aI492
aI491
aI493
aI491
aI491
aI494
aI491
aI491
aI496
aI492
aI492
aI503
aI491
aI505
aI492
aI491
aI504
aI492
aI491
aI500
aI492
aI491
aI495
aI493
aI492
aI492
aI494
aI491
aI491
aI494
aI491
aI491
aI497
aI492
aI491
aI491
aI491
aI504
aI491
aI491
aI504
aI492
aI491
aI499
aI492
aI491
aI495
aI492
aI492
aI492
aI494
aI491
aI491
aI498
aI491
aI491
aI504
aI491
aI492
aI502
aI492
aI491
aI498
aI492
aI492
aI491
aI492
aI491
aI494
aI492
aI492
aI496
aI491
aI491
aI499
aI491
aI491
aI505
aI491
aI491
aI504
aI492
aI492
aI502
aI491
aI497
aI492
aI491
aI491
aI492
aI491
aI493
aI491
aI492
aI496
aI492
aI491
aI499
aI491
aI491
aI505
aI491
aI490
aI504
aI491
aI491
aI502
aI492
aI491
aI498
aI492
aI491
aI490
aI492
aI492
aI492
aI494
aI492
aI492
aI496
aI492
aI491
aI492
aI491
aI505
aI492
aI491
aI504
aI492
aI491
aI501
aI492
aI491
aI498
aI492
aI491
aI492
aI492
aI491
aI491
aI493
aI491
aI491
aI496
aI492
aI492
aI502
aI492
aI491
aI503
aI492
aI492
aI498
aI493
aI491
aI494
aI491
aI491
aI494
aI491
aI491
aI497
aI492
aI492
aI503
aI492
aI491
aI505
aI492
aI492
aI504
aI491
aI491
aI499
aI492
aI491
aI495
aI492
aI492
aI491
aI493
aI492
aI491
aI493
aI491
aI492
aI497
aI491
aI492
aI503
aI491
aI492
aI505
aI492
aI491
aI504
aI492
aI492
aI500
aI492
aI491
aI496
aI492
aI491
aI492
aI494
aI492
aI491
aI492
aI492
aI497
aI491
aI491
aI503
aI491
aI491
aI505
aI492
aI504
aI492
aI491
aI499
aI492
aI492
aI496
aI492
aI491
aI491
aI493
aI491
aI491
aI495
aI491
aI492
aI496
aI491
aI491
aI503
aI492
aI492
aI504
aI491
aI491
aI501
aI492
aI491
aI494
aI492
aI491
aI491
aI495
aI492
aI491
aI499
aI491
aI491
aI505
aI492
aI492
aI504
aI492
aI491
aI502
aI492
aI497
aI492
aI492
aI493
aI492
aI492
aI491
aI493
aI491
aI491
aI496
aI491
aI491
aI499
aI492
aI491
aI505
aI492
aI491
aI504
aI492
aI491
aI502
aI492
aI491
aI498
aI492
aI492
aI493
aI493
aI491
aI491
aI494
aI491
aI496
aI491
aI491
aI499
aI492
aI490
aI506
aI491
aI491
aI504
aI492
aI491
aI502
aI492
aI492
aI497
aI492
aI491
asS'b'
p8
(lp9
I415
aI407
aI416
aI415
aI408
aI417
aI416
aI410
aI416
aI416
aI415
aI416
aI415
aI416
aI415
aI415
aI414
aI414
aI416
aI415
aI416
aI415
aI410
aI417
aI416
aI407
aI416
aI416
aI408
aI416
aI415
aI411
aI416
aI415
aI416
aI415
aI416
aI416
aI412
aI416
aI415
aI407
aI416
aI417
aI408
aI415
aI415
aI409
aI417
aI416
aI412
aI417
aI416
aI415
aI416
aI416
aI415
aI415
aI417
aI415
aI413
aI415
aI415
aI411
aI415
aI416
aI407
aI415
aI416
aI408
aI416
aI415
aI410
aI418
aI415
aI412
aI416
aI415
aI415
aI417
aI416
aI415
aI415
aI416
aI415
aI414
aI415
aI412
aI417
aI416
aI407
aI417
aI416
aI408
aI416
aI415
aI410
aI417
aI417
aI412
aI417
aI417
aI415
aI416
aI416
aI415
aI414
aI417
aI415
aI414
aI416
aI415
aI411
aI416
aI415
aI407
aI416
aI417
aI408
aI417
aI415
aI417
aI415
aI411
aI417
aI416
aI415
aI416
aI416
aI415
aI413
aI416
aI415
aI410
aI416
aI415
aI408
aI417
aI416
aI412
aI416
aI416
aI416
aI416
aI415
aI415
aI416
aI416
aI414
aI416
aI416
aI412
aI415
aI415
aI408
aI416
aI408
aI416
aI409
aI417
aI416
aI411
aI417
aI416
aI415
aI417
aI415
aI416
aI416
aI416
aI415
aI413
aI416
aI415
aI412
aI415
aI416
aI411
aI417
aI415
aI406
aI416
aI415
aI409
aI417
aI416
aI411
aI417
aI416
aI415
aI416
aI415
aI416
aI416
aI417
aI415
aI414
aI416
aI415
aI412
aI416
aI416
aI416
aI415
aI407
aI416
aI415
aI408
aI417
aI410
aI416
aI415
aI415
aI416
aI415
aI414
aI415
aI416
aI415
aI414
aI417
aI415
aI412
aI416
aI414
aI407
aI416
aI416
aI409
aI417
aI416
aI415
aI415
aI416
aI416
aI415
aI415
aI413
aI416
aI416
aI411
aI417
aI415
aI407
aI416
aI415
aI408
aI417
aI415
aI410
aI417
aI416
aI412
aI416
aI415
aI416
aI416
aI415
aI415
aI416
aI415
aI413
aI416
aI416
aI411
aI417
aI415
aI407
aI415
aI415
aI407
aI416
aI409
aI416
aI415
aI411
aI416
aI417
aI415
aI416
aI415
aI415
aI415
aI416
aI415
aI413
aI415
aI415
aI410
aI415
aI415
aI407
aI415
aI415
aI407
aI417
aI416
aI409
aI416
aI416
aI412
aI417
aI415
aI415
aI416
aI416
aI415
aI414
aI416
aI415
aI413
aI415
aI416
aI411
aI416
aI416
aI407
aI417
aI415
aI407
aI416
aI415
aI412
aI416
aI416
aI415
aI415
aI416
aI415
aI412
aI416
aI411
aI416
aI415
aI407
aI417
aI415
aI408
aI417
aI416
aI411
aI415
aI415
aI417
aI415
aI416
aI416
aI415
aI414
aI416
aI415
aI411
aI416
aI415
aI406
aI416
aI416
aI408
aI417
aI416
aI409
aI417
aI416
aI411
aI417
aI416
aI415
aI416
aI415
aI416
aI415
aI416
aI414
aI416
aI415
aI411
aI416
aI415
aI407
aI416
aI416
aI408
aI418
aI415
aI408
aI416
aI415
aI411
aI416
aI415
aI415
aI417
aI416
aI415
aI416
aI416
aI415
aI414
aI417
aI416
aI412
aI416
aI415
aI410
aI416
aI416
aI407
aI415
aI415
aI409
aI416
aI415
aI412
aI417
aI415
aI415
aI417
aI416
aI415
aI414
aI416
aI416
aI409
aI416
aI416
aI408
aI416
aI416
aI409
aI418
aI416
aI412
aI417
aI415
aI415
aI417
aI417
aI415
aI415
aI415
aI416
aI413
aI416
aI411
aI416
aI416
aI415
aI415
aI408
aI416
aI415
aI409
aI417
aI415
aI412
aI417
aI415
aI415
aI417
aI417
aI416
aI415
aI415
aI415
aI414
aI416
aI415
aI411
aI416
aI415
aI407
aI417
aI415
aI408
aI416
aI416
aI410
aI417
aI415
aI412
aI416
aI416
aI415
aI415
aI415
aI416
aI415
aI415
aI415
aI414
aI416
aI415
aI410
aI417
aI415
aI407
aI416
aI416
aI408
aI416
aI415
aI409
aI416
aI415
aI412
aI418
aI416
aI415
aI415
aI416
aI415
aI416
aI415
aI416
aI412
aI416
aI416
aI407
aI416
aI415
aI409
aI417
aI415
aI415
aI416
aI415
aI415
aI415
aI415
aI416
aI414
aI416
aI415
aI412
aI417
aI415
aI411
aI415
aI416
aI407
aI416
aI415
aI409
aI416
aI416
aI411
aI417
aI415
aI415
aI416
aI415
aI415
aI416
aI415
aI415
aI415
aI416
aI412
aI416
aI415
aI407
aI416
aI415
aI407
aI416
aI415
aI409
aI416
aI417
aI412
aI417
aI416
aI415
aI417
aI416
aI415
aI415
aI416
aI415
aI413
aI416
aI415
aI412
aI415
aI415
aI407
aI417
aI416
aI407
aI416
aI416
aI409
aI417
aI417
aI411
aI417
aI415
aI415
aI415
aI415
aI415
aI415
aI416
aI414
aI415
aI415
aI412
aI416
aI416
aI406
aI416
aI415
aI407
aI417
aI416
aI411
aI417
aI416
aI415
aI415
aI415
aI415
aI412
aI416
aI415
aI416
aI416
aI408
aI416
aI415
aI408
aI417
aI416
aI411
aI418
aI411
aI417
aI416
aI416
aI416
aI415
aI414
aI416
aI415
aI413
aI416
aI416
aI410
aI416
aI415
aI407
aI415
aI407
aI417
aI416
aI409
aI411
aI416
aI416
aI414
aI415
aI416
aI415
aI416
aI415
aI412
aI416
aI412
aI416
aI416
aI407
aI417
aI408
aI415
aI409
aI416
aI415
aI411
aI416
aI416
aI416
aI416
aI415
aI415
aI416
aI415
aI413
aI415
aI411
aI416
aI415
aI406
aI417
aI415
aI408
aI417
aI416
aI410
aI416
aI416
aI412
aI417
aI415
aI415
aI415
aI416
aI415
aI411
aI416
aI415
aI407
aI416
aI415
aI408
aI416
aI412
aI416
aI415
aI415
aI416
aI416
aI415
aI416
aI416
aI415
aI414
aI416
aI416
aI412
aI416
aI411
aI415
aI407
aI416
aI416
aI408
aI417
aI416
aI412
aI418
aI416
aI415
aI417
aI416
aI415
aI416
aI416
aI415
aI416
aI415
aI412
aI415
aI415
aI411
aI417
aI416
aI407
aI415
aI415
aI408
aI416
aI416
aI411
aI417
aI415
aI416
aI416
aI416
aI416
aI415
aI415
aI414
aI416
aI415
aI411
aI416
aI415
aI411
aI415
aI416
aI407
aI416
aI415
aI408
aI416
aI416
aI412
aI417
aI415
aI416
aI416
aI415
aI415
aI415
aI415
aI412
aI416
aI415
aI406
aI416
aI416
aI408
aI417
aI415
aI412
aI416
aI416
aI417
aI415
aI415
aI415
aI416
aI416
aI412
aI416
aI415
aI409
aI416
aI415
aI407
aI415
aI416
aI408
aI417
aI415
aI409
aI417
aI415
aI412
aI416
aI415
aI414
aI416
aI415
aI415
aI415
aI416
aI415
aI413
aI415
aI416
aI411
aI415
aI415
aI406
aI416
aI415
aI408
aI417
aI416
aI409
aI417
aI416
aI411
aI416
aI416
aI415
aI415
aI416
aI415
aI415
aI415
aI415
aI414
aI416
aI415
aI411
aI415
aI415
aI407
aI416
aI415
aI407
aI415
aI415
aI409
aI416
aI412
aI416
aI415
aI415
aI416
aI416
aI415
aI415
aI415
aI415
aI414
aI415
aI415
aI409
aI416
aI415
aI407
aI416
aI416
aI411
aI417
aI415
aI415
aI415
aI417
aI415
aI414
aI415
aI415
aI412
aI416
aI407
aI415
aI416
aI407
aI417
aI415
aI409
aI417
aI416
aI412
aI417
aI415
aI415
aI416
aI415
aI415
aI415
aI416
aI415
aI413
aI416
aI415
aI411
aI416
aI415
aI407
aI416
aI415
aI407
aI416
aI415
aI408
aI416
aI416
aI411
aI415
aI415
aI416
aI416
aI415
aI415
aI415
aI414
aI413
aI416
aI415
aI412
aI416
aI415
aI407
aI415
aI415
aI408
aI416
aI415
aI409
aI416
aI416
aI411
aI416
aI416
aI415
aI417
aI416
aI415
aI416
aI416
aI415
aI414
aI416
aI415
aI416
aI416
aI407
aI416
aI415
aI406
aI416
aI415
aI408
aI416
aI415
aI411
aI416
aI416
aI416
aI414
aI416
aI415
aI412
aI417
aI415
aI407
aI416
aI415
aI408
aI416
aI415
aI410
aI417
aI416
aI412
aI416
aI415
aI415
aI416
aI415
aI415
aI415
aI416
aI415
aI413
aI415
aI415
aI412
aI416
aI416
aI407
aI415
aI416
aI408
aI416
aI415
aI409
aI416
aI417
aI412
aI417
aI416
aI415
aI415
aI416
aI415
aI415
aI416
aI415
aI413
aI416
aI415
aI411
aI415
aI415
aI408
aI415
aI407
aI416
aI416
aI409
aI417
aI416
aI411
aI417
aI416
aI415
aI416
aI415
aI415
aI414
aI416
aI415
aI413
aI416
aI415
aI411
aI415
aI415
aI417
aI416
aI408
aI417
aI415
aI408
aI417
aI415
aI411
aI416
aI416
aI414
aI416
aI415
aI415
aI414
aI416
aI415
aI410
aI416
aI415
aI408
aI416
aI415
aI411
aI417
aI416
aI415
aI416
aI415
aI415
aI415
aI415
aI414
aI415
aI415
aI411
aI415
aI415
aI410
aI416
aI416
aI407
aI416
aI415
aI409
aI416
aI415
aI412
aI415
aI415
aI416
aI416
aI415
aI415
aI416
aI414
aI415
aI416
aI412
aI416
aI416
aI411
aI416
aI416
aI408
aI416
aI416
aI409
aI416
aI415
aI411
aI417
aI416
aI415
aI416
aI415
aI415
aI415
aI416
aI416
aI414
aI415
aI415
aI412
aI416
aI415
aI416
aI416
aI407
aI417
aI415
aI408
aI417
aI416
aI411
aI416
aI415
aI416
aI416
aI416
aI414
aI415
aI416
aI415
aI414
aI416
aI415
aI411
aI416
aI415
aI408
aI417
aI416
aI410
aI417
aI416
aI415
aI416
aI417
aI415
aI415
aI415
aI413
aI415
aI416
aI411
aI416
aI415
aI407
aI416
aI415
aI408
aI417
aI415
aI409
aI416
aI416
aI412
aI418
aI416
aI415
aI416
aI415
aI416
aI415
aI416
aI416
aI414
aI415
aI415
aI411
aI415
aI415
aI407
aI416
aI415
aI408
aI415
aI415
aI409
aI415
aI415
aI411
aI417
aI416
aI416
aI415
aI416
aI415
aI415
aI415
aI415
aI415
aI415
aI411
aI415
aI416
aI407
aI416
aI416
aI408
aI415
aI408
aI417
aI415
aI412
aI417
aI415
aI416
aI417
aI416
aI415
aI415
aI415
aI416
aI412
aI416
aI416
aI411
aI415
aI416
aI407
aI416
aI415
aI407
aI416
aI415
aI411
aI417
aI416
aI415
aI415
aI416
aI415
aI412
aI415
aI415
aI406
aI416
aI415
aI407
aI416
aI415
aI409
aI417
aI415
aI411
aI416
aI414
aI416
aI415
aI415
aI416
aI416
aI415
aI414
aI416
aI416
aI412
aI416
aI416
aI406
aI417
aI415
aI406
aI415
aI416
aI408
aI416
aI415
aI411
aI417
aI415
aI415
aI418
aI417
aI415
aI415
aI416
aI415
aI415
aI415
aI411
aI415
aI416
aI407
aI415
aI415
aI408
aI417
aI416
aI408
aI416
aI415
aI411
aI417
aI415
aI415
aI416
aI416
asS's'
p10
(lp11
I162817861
aI162819646
aI162821431
aI162823216
aI162825001
aI162826786
aI162828571
aI162830356
aI162832141
aI162833926
aI162835711
aI162837496
aI162839281
aI162841066
aI162842851
aI162844636
aI162846421
aI162848206
aI162849991
aI162851776
aI162855346
aI162857134
aI162858918
aI162860702
aI162862487
aI162864271
aI162866056
aI162867841
aI162869626
aI162871411
aI162873086
aI162874776
aI162876466
aI162878155
aI162879845
aI162881534
aI162883224
aI162884913
aI162886603
aI162888292
aI162890092
aI162891876
aI162893661
aI162895445
aI162897230
aI162899015
aI162900800
aI162902585
aI162904370
aI162906155
aI162907939
aI162909724
aI162911508
aI162913292
aI162915077
aI162916861
aI162918646
aI162920431
aI162922216
aI162924001
aI162925786
aI162927571
aI162929356
aI162931141
aI162932926
aI162934711
aI162936496
aI162938281
aI162940066
aI162941851
aI162943636
aI162945421
aI162947206
aI162948991
aI162950776
aI162952561
aI162954346
aI162956131
aI162957916
aI162959701
aI162961486
aI162963271
aI162965056
aI162966841
aI162968626
aI162970411
aI162972196
aI162975766
aI162977551
aI162979336
aI162981121
aI162982906
aI162984691
aI162986476
aI162988261
aI162990046
aI162991831
aI162993616
aI162995401
aI162997186
aI162998971
aI163000756
aI163002541
aI163004326
aI163006111
aI163007896
aI163009681
aI163011466
aI163013251
aI163015036
aI163016821
aI163018606
aI163020391
aI163022176
aI163023961
aI163025746
aI163027531
aI163029316
aI163031101
aI163032886
aI163034671
aI163038241
aI163040026
aI163041811
aI163043596
aI163045381
aI163047166
aI163048951
aI163050626
aI163052316
aI163054008
aI163055697
aI163057387
aI163059076
aI163060766
aI163062456
aI163064146
aI163065835
aI163067635
aI163069419
aI163071204
aI163072989
aI163076559
aI163078344
aI163080129
aI163081914
aI163083699
aI163085484
aI163087269
aI163089054
aI163090839
aI163092624
aI163094409
aI163096194
aI163097979
aI163101549
aI163103334
aI163106904
aI163108689
aI163110474
aI163112259
aI163114044
aI163115829
aI163117614
aI163119399
aI163121184
aI163122969
aI163124754
aI163126539
aI163128324
aI163130109
aI163131894
aI163133679
aI163135464
aI163137249
aI163139034
aI163140819
aI163142604
aI163144389
aI163146174
aI163147959
aI163149744
aI163151529
aI163153314
aI163155099
aI163156884
aI163158669
aI163160454
aI163162239
aI163164024
aI163165809
aI163167594
aI163169379
aI163171164
aI163172949
aI163174734
aI163176519
aI163178304
aI163180089
aI163181874
aI163183659
aI163185444
aI163189014
aI163190799
aI163192584
aI163194369
aI163196154
aI163197939
aI163199724
aI163203294
aI163205079
aI163206864
aI163208649
aI163210434
aI163212219
aI163214004
aI163215789
aI163217574
aI163219359
aI163221144
aI163222929
aI163224714
aI163226499
aI163228174
aI163229864
aI163231553
aI163233243
aI163234932
aI163236622
aI163238311
aI163240001
aI163241690
aI163243380
aI163245180
aI163246964
aI163248748
aI163252320
aI163254104
aI163255888
aI163257673
aI163259457
aI163261242
aI163263027
aI163264812
aI163266597
aI163268382
aI163270167
aI163271952
aI163273737
aI163275522
aI163277307
aI163279092
aI163280877
aI163284447
aI163286232
aI163288017
aI163289802
aI163291587
aI163293372
aI163295157
aI163296942
aI163298726
aI163300511
aI163302295
aI163304079
aI163305864
aI163307648
aI163309433
aI163311218
aI163313003
aI163314788
aI163316573
aI163320143
aI163321928
aI163323713
aI163325498
aI163327283
aI163329068
aI163330853
aI163332638
aI163334423
aI163336208
aI163337993
aI163339778
aI163341563
aI163343348
aI163345133
aI163346918
aI163348703
aI163350488
aI163352273
aI163354058
aI163355843
aI163357628
aI163359413
aI163361198
aI163362983
aI163364768
aI163366553
aI163368338
aI163370123
aI163371908
aI163373693
aI163375478
aI163377263
aI163379048
aI163380833
aI163382618
aI163384403
aI163386188
aI163387973
aI163389758
aI163391543
aI163393328
aI163395113
aI163396898
aI163398683
aI163400468
aI163402253
aI163404038
aI163405713
aI163407403
aI163409093
aI163410782
aI163412472
aI163414161
aI163415851
aI163417540
aI163419230
aI163420919
aI163422719
aI163426288
aI163428072
aI163429857
aI163431642
aI163433427
aI163435212
aI163436997
aI163438782
aI163440567
aI163442352
aI163445922
aI163447709
aI163451278
aI163453062
aI163454847
aI163456632
aI163458417
aI163460202
aI163461987
aI163463772
aI163465557
aI163467342
aI163469127
aI163470912
aI163472697
aI163474482
aI163476267
aI163478052
aI163479837
aI163481622
aI163483407
aI163485192
aI163486977
aI163488762
aI163490547
aI163492332
aI163494117
aI163495902
aI163497687
aI163499472
aI163501257
aI163504827
aI163506612
aI163508397
aI163510182
aI163511967
aI163513752
aI163515537
aI163517322
aI163519107
aI163520892
aI163522677
aI163524462
aI163526247
aI163528032
aI163529817
aI163531602
aI163533387
aI163535172
aI163536957
aI163538742
aI163540527
aI163542312
aI163544097
aI163545882
aI163547667
aI163549452
aI163551237
aI163553022
aI163554807
aI163556592
aI163558377
aI163560162
aI163561947
aI163563732
aI163565517
aI163567302
aI163569087
aI163570872
aI163572657
aI163574442
aI163576226
aI163578013
aI163579798
aI163581582
aI163583257
aI163584947
aI163586637
aI163588326
aI163590016
aI163591705
aI163593395
aI163595084
aI163596774
aI163598464
aI163600264
aI163602048
aI163603832
aI163605617
aI163607401
aI163609186
aI163610971
aI163612756
aI163614541
aI163616326
aI163618111
aI163619896
aI163621681
aI163623466
aI163625251
aI163627036
aI163628821
aI163632391
aI163634176
aI163635961
aI163639531
aI163641316
aI163643101
aI163644886
aI163646671
aI163648456
aI163650241
aI163652026
aI163653811
aI163655596
aI163657381
aI163659166
aI163660951
aI163662736
aI163664521
aI163666306
aI163668091
aI163669876
aI163671661
aI163673446
aI163675231
aI163677016
aI163678801
aI163680586
aI163682371
aI163684156
aI163685941
aI163687726
aI163689511
aI163691296
aI163693081
aI163694866
aI163696651
aI163698436
aI163700221
aI163702006
aI163703791
aI163705576
aI163707361
aI163709146
aI163710931
aI163712716
aI163714501
aI163716286
aI163718071
aI163719856
aI163721641
aI163723426
aI163725211
aI163726996
aI163728781
aI163730566
aI163732351
aI163734136
aI163735921
aI163737706
aI163739491
aI163741276
aI163743061
aI163744846
aI163746631
aI163748416
aI163750201
aI163751986
aI163753771
aI163755556
aI163757341
aI163759126
aI163760801
aI163762491
aI163764180
aI163765870
aI163767559
aI163769249
aI163770938
aI163772628
aI163774317
aI163776007
aI163777807
aI163779592
aI163781376
aI163783160
aI163784945
aI163786729
aI163788514
aI163790299
aI163792084
aI163793869
aI163795654
aI163797439
aI163799224
aI163801009
aI163802794
aI163804579
aI163806364
aI163808149
aI163809934
aI163811719
aI163813504
aI163815289
aI163817074
aI163818859
aI163820644
aI163822429
aI163824214
aI163825999
aI163827784
aI163829569
aI163831354
aI163834924
aI163836709
aI163838494
aI163840279
aI163842063
aI163843848
aI163845632
aI163847416
aI163849201
aI163850985
aI163852770
aI163854555
aI163856340
aI163858125
aI163859910
aI163861695
aI163863480
aI163865265
aI163867050
aI163868835
aI163870620
aI163872405
aI163874190
aI163875975
aI163877760
aI163879545
aI163881330
aI163883115
aI163884900
aI163886685
aI163888470
aI163890255
aI163892040
aI163893825
aI163895610
aI163897395
aI163899180
aI163900965
aI163902750
aI163904535
aI163906320
aI163909890
aI163911675
aI163913460
aI163915245
aI163917030
aI163918815
aI163920600
aI163922385
aI163924170
aI163925955
aI163927740
aI163929525
aI163931310
aI163933095
aI163934880
aI163936665
aI163938340
aI163940030
aI163941720
aI163943409
aI163945099
aI163946788
aI163948478
aI163950167
aI163951857
aI163953546
aI163955346
aI163957130
aI163958915
aI163962484
aI163964269
aI163966054
aI163967839
aI163969624
aI163971411
aI163973195
aI163974980
aI163976764
aI163978549
aI163982119
aI163983904
aI163985689
aI163987474
aI163991044
aI163992829
aI163994614
aI163996399
aI163998184
aI163999969
aI164001754
aI164003539
aI164005324
aI164007109
aI164008894
aI164010679
aI164014249
aI164016034
aI164017819
aI164019604
aI164021389
aI164026744
aI164028529
aI164030314
aI164032099
aI164033884
aI164035669
aI164037454
aI164041024
aI164042809
aI164044594
aI164046379
aI164049949
aI164051734
aI164053519
aI164055304
aI164057089
aI164060659
aI164064229
aI164066014
aI164067799
aI164069584
aI164071369
aI164073154
aI164074939
aI164078508
aI164080292
aI164082076
aI164083861
aI164085645
aI164087430
aI164089215
aI164092785
aI164094570
aI164096355
aI164098140
aI164099925
aI164101710
aI164103520
aI164105305
aI164107090
aI164108875
aI164110660
aI164112445
aI164114230
aI164115904
aI164117594
aI164119283
aI164120973
aI164122662
aI164124352
aI164126042
aI164127732
aI164129421
aI164131111
aI164132910
aI164134695
aI164136479
aI164138264
aI164140049
aI164143619
aI164145404
aI164147189
aI164148974
aI164150759
aI164152544
aI164154329
aI164156114
aI164157899
aI164159684
aI164161469
aI164163254
aI164165039
aI164166824
aI164168611
aI164172180
aI164175749
aI164177534
aI164179319
aI164181104
aI164182889
aI164184674
aI164186459
aI164188243
aI164190028
aI164191812
aI164193596
aI164195381
aI164197165
aI164198950
aI164200735
aI164202520
aI164204305
aI164207875
aI164209660
aI164211445
aI164213230
aI164215015
aI164216800
aI164218585
aI164220370
aI164222155
aI164223940
aI164225725
aI164227510
aI164229295
aI164231080
aI164232865
aI164234650
aI164238220
aI164240005
aI164241790
aI164243575
aI164245360
aI164247145
aI164248930
aI164250715
aI164252500
aI164254285
aI164256070
aI164257855
aI164259640
aI164261425
aI164263210
aI164264995
aI164266780
aI164268565
aI164270350
aI164272135
aI164273920
aI164275705
aI164277490
aI164279275
aI164282845
aI164284630
aI164286415
aI164288200
aI164289985
aI164291770
aI164293445
aI164295135
aI164296824
aI164298514
aI164300204
aI164301893
aI164303583
aI164305273
aI164306963
aI164308652
aI164310452
aI164314022
aI164315807
aI164317592
aI164319377
aI164321162
aI164322947
aI164324732
aI164326517
aI164328302
aI164330087
aI164331872
aI164333657
aI164335442
aI164337227
aI164339012
aI164340797
aI164342582
aI164344367
aI164346152
aI164347937
aI164349722
aI164351507
aI164353292
aI164355077
aI164356861
aI164358646
aI164360430
aI164362214
aI164363999
aI164365783
aI164367568
aI164369353
aI164371138
aI164372923
aI164374708
aI164376493
aI164378278
aI164380063
aI164381848
aI164383633
aI164385418
aI164387203
aI164388988
aI164390773
aI164392558
aI164394343
aI164396128
aI164397913
aI164399698
aI164401483
aI164403268
aI164405053
aI164406838
aI164408623
aI164410408
aI164412192
aI164413977
aI164415761
aI164417545
aI164419330
aI164421114
aI164422899
aI164424684
aI164426469
aI164428254
aI164430039
aI164431824
aI164433609
aI164435394
aI164437179
aI164438964
aI164442534
aI164444319
aI164446104
aI164447889
aI164449674
aI164451459
aI164453244
aI164455029
aI164456814
aI164458599
aI164460384
aI164462169
aI164463954
aI164465739
aI164467524
aI164469309
aI164470984
aI164472674
aI164474364
aI164476053
aI164477743
aI164479432
aI164481122
aI164482811
aI164484501
aI164486190
aI164487990
aI164489774
aI164491559
aI164493343
aI164495128
aI164496913
aI164500483
aI164502268
aI164504053
aI164505838
aI164507623
aI164509408
aI164511193
aI164512978
aI164514763
aI164516548
aI164518333
aI164520118
aI164521902
aI164523687
aI164525471
aI164527255
aI164529040
aI164530824
aI164532609
aI164534394
aI164536179
aI164537964
aI164539749
aI164541534
aI164543319
aI164545104
aI164546889
aI164548674
aI164550459
aI164552244
aI164554029
aI164555814
aI164557599
aI164559384
aI164561169
aI164564739
aI164566524
aI164568309
aI164570094
aI164571879
aI164573664
aI164575449
aI164577234
aI164579019
aI164580804
aI164582589
aI164584374
aI164586159
aI164587944
aI164589729
aI164591514
aI164593299
aI164595084
aI164596869
aI164598654
aI164600439
aI164602224
aI164604009
aI164605794
aI164607579
aI164609364
aI164611149
aI164612934
aI164614719
aI164616504
aI164618289
aI164620074
aI164621859
aI164623644
aI164625429
aI164627214
aI164630784
aI164632569
aI164634354
aI164636139
aI164637924
aI164639709
aI164641494
aI164643279
aI164645064
aI164646849
aI164648524
aI164650214
aI164651903
aI164653593
aI164655282
aI164656972
aI164658661
aI164660351
aI164662040
aI164663730
aI164665530
aI164667314
aI164669098
aI164670883
aI164672667
aI164674452
aI164676237
aI164678022
aI164679807
aI164681592
aI164683377
aI164685162
aI164686947
aI164688732
aI164690516
aI164692301
aI164694085
aI164695869
aI164697654
aI164699438
aI164701223
aI164703008
aI164704793
aI164706578
aI164708363
aI164710148
aI164711933
aI164713718
aI164715503
aI164717288
aI164719073
aI164720858
aI164722643
aI164724428
aI164726213
aI164727998
aI164729783
aI164731568
aI164733353
aI164735138
aI164736923
aI164738708
aI164740493
aI164742278
aI164744063
aI164745848
aI164747633
aI164749418
aI164751203
aI164752988
aI164754773
aI164756558
aI164758343
aI164761913
aI164763698
aI164765483
aI164767268
aI164769053
aI164770838
aI164772623
aI164774408
aI164776193
aI164777978
aI164779763
aI164781548
aI164783333
aI164785118
aI164786903
aI164788688
aI164790473
aI164792258
aI164794043
aI164795828
aI164797613
aI164799398
aI164802968
aI164804753
aI164806538
aI164808323
aI164810108
aI164811893
aI164813678
aI164815463
aI164817248
aI164819033
aI164820818
aI164822603
aI164824413
aI164826088
aI164827777
aI164829467
aI164831156
aI164832846
aI164834536
aI164836226
aI164837915
aI164839605
aI164841294
aI164843094
aI164844878
aI164846663
aI164848447
aI164850232
aI164852017
aI164853802
aI164855587
aI164857371
aI164860940
aI164862724
aI164864509
aI164866293
aI164868078
aI164869863
aI164871648
aI164873433
aI164875218
aI164877003
aI164878788
aI164880573
aI164882358
aI164884143
aI164885928
aI164887713
aI164889501
aI164893069
aI164894854
aI164896638
aI164898423
aI164900208
aI164901993
aI164903778
aI164907348
aI164909133
aI164910918
aI164912703
aI164914488
aI164916273
aI164918058
aI164919843
aI164921628
aI164923413
aI164925198
aI164926983
aI164928768
aI164930553
aI164932338
aI164934123
aI164935908
aI164937693
aI164939478
aI164941263
aI164943048
aI164944833
aI164946618
aI164948403
aI164950188
aI164951973
aI164953758
aI164955543
aI164957328
aI164959113
aI164960898
aI164964468
aI164966253
aI164968038
aI164969823
aI164971608
aI164973393
aI164975178
aI164976963
aI164978748
aI164980533
aI164982318
aI164984103
aI164985888
aI164987673
aI164989458
aI164991243
aI164993028
aI164994813
aI164996598
aI164998383
aI165000168
aI165001953
aI165003628
aI165005318
aI165007008
aI165008697
aI165010387
aI165012076
aI165013766
aI165015455
aI165017145
aI165018834
aI165020634
aI165024203
aI165025987
aI165027772
aI165029557
aI165031342
aI165033127
aI165034912
aI165036697
aI165038482
aI165040267
aI165042052
aI165043837
aI165045622
aI165047407
aI165049192
aI165050977
aI165052762
aI165054547
aI165056332
aI165058117
aI165059902
aI165061687
aI165063472
aI165065257
aI165067042
aI165068827
aI165070612
aI165072397
aI165074182
aI165075967
aI165077752
aI165079537
aI165081322
aI165083107
aI165084892
aI165086677
aI165088462
aI165090247
aI165092032
aI165093817
aI165095602
aI165097387
aI165099172
aI165100957
aI165102742
aI165104527
aI165106312
aI165108097
aI165109882
aI165111667
aI165113452
aI165115237
aI165117022
aI165120592
aI165122377
aI165124162
aI165125947
aI165127732
aI165129517
aI165131302
aI165133087
aI165134872
aI165136657
aI165140227
aI165142012
aI165143797
aI165145582
aI165147367
aI165149152
aI165150936
aI165152721
aI165154505
aI165156289
aI165158074
aI165159858
aI165161643
aI165163428
aI165165213
aI165166998
aI165168783
aI165170568
aI165172353
aI165174138
aI165175923
aI165177708
aI165179493
aI165181168
aI165182858
aI165184547
aI165186237
aI165187926
aI165189616
aI165191306
aI165192996
aI165194686
aI165196375
aI165198175
aI165199960
aI165201745
aI165203530
aI165205315
aI165207100
aI165208885
aI165210670
aI165212455
aI165214240
aI165216025
aI165217810
aI165219595
aI165223165
aI165224950
aI165226735
aI165228520
aI165230305
aI165232090
aI165233875
aI165235660
aI165237445
aI165239230
aI165241015
aI165242800
aI165244585
aI165246369
aI165248154
aI165249938
aI165251722
aI165253507
aI165255291
aI165257076
aI165258861
aI165260646
aI165262431
aI165264216
aI165266001
aI165267786
aI165269571
aI165271356
aI165273141
aI165274926
aI165276711
aI165278496
aI165280281
aI165282066
aI165285635
aI165287419
aI165289203
aI165290988
aI165292772
aI165294557
aI165296342
aI165298127
aI165299912
aI165301697
aI165303482
aI165305267
aI165307052
aI165308837
aI165310622
aI165312407
aI165314192
aI165315977
asS'y'
p12
(lp13
I459
aI458
aI458
aI459
aI457
aI460
aI461
aI463
aI462
aI460
aI457
aI458
aI460
aI460
aI460
aI459
aI460
aI459
aI462
aI462
aI460
aI459
aI456
aI463
aI461
aI457
aI460
aI460
aI456
aI460
aI460
aI458
aI456
aI459
aI459
aI458
aI459
aI459
aI463
aI461
aI460
aI460
aI460
aI459
aI458
aI459
aI459
aI458
aI460
aI458
aI458
aI459
aI459
aI457
aI461
aI460
aI460
aI460
aI459
aI462
aI461
aI460
aI460
aI459
aI463
aI459
aI459
aI462
aI455
aI460
aI459
aI461
aI462
aI460
aI461
aI460
aI460
aI460
aI460
aI458
aI462
aI459
aI459
aI457
aI460
aI459
aI460
aI461
aI455
aI460
aI460
aI458
aI459
aI460
aI459
aI459
aI461
aI459
aI460
aI457
aI461
aI462
aI457
aI459
aI460
aI457
aI460
aI462
aI460
aI460
aI459
aI462
aI459
aI460
aI459
aI460
aI459
aI460
aI460
aI459
aI458
aI458
aI457
aI459
aI455
aI457
aI457
aI462
aI460
aI459
aI460
aI455
aI460
aI462
aI460
aI460
aI458
aI460
aI459
aI459
aI461
aI458
aI457
aI459
aI462
aI460
aI461
aI459
aI459
aI458
aI461
aI461
aI461
aI460
aI455
aI460
aI460
aI459
aI461
aI461
aI458
aI462
aI459
aI459
aI460
aI461
aI459
aI462
aI459
aI457
aI462
aI459
aI460
aI458
aI460
aI458
aI462
aI463
aI460
aI457
aI460
aI460
aI461
aI457
aI464
aI460
aI459
aI461
aI460
aI458
aI456
aI461
aI459
aI463
aI460
aI459
aI456
aI459
aI459
aI457
aI455
aI456
aI460
aI461
aI462
aI460
aI459
aI460
aI457
aI462
aI462
aI459
aI460
aI459
aI460
aI462
aI457
aI462
aI457
aI460
aI458
aI462
aI460
aI460
aI458
aI461
aI460
aI455
aI460
aI460
aI459
aI455
aI462
aI460
aI459
aI458
aI458
aI460
aI462
aI460
aI460
aI461
aI458
aI460
aI461
aI461
aI460
aI463
aI460
aI458
aI462
aI460
aI460
aI460
aI458
aI457
aI463
aI459
aI460
aI457
aI457
aI460
aI460
aI458
aI461
aI460
aI461
aI461
aI461
aI457
aI460
aI460
aI460
aI456
aI458
aI460
aI462
aI458
aI457
aI458
aI460
aI463
aI458
aI460
aI459
aI459
aI457
aI461
aI460
aI459
aI459
aI458
aI460
aI460
aI455
aI458
aI458
aI461
aI461
aI456
aI457
aI460
aI461
aI459
aI457
aI460
aI461
aI459
aI459
aI460
aI463
aI457
aI459
aI458
aI459
aI459
aI460
aI457
aI460
aI457
aI462
aI460
aI459
aI456
aI463
aI459
aI460
aI462
aI460
aI456
aI463
aI460
aI457
aI460
aI461
aI463
aI459
aI460
aI462
aI461
aI460
aI459
aI459
aI459
aI455
aI458
aI460
aI461
aI459
aI463
aI460
aI457
aI462
aI463
aI460
aI460
aI459
aI459
aI456
aI462
aI457
aI457
aI457
aI462
aI459
aI459
aI460
aI460
aI459
aI459
aI460
aI461
aI459
aI460
aI460
aI457
aI459
aI460
aI459
aI460
aI457
aI460
aI460
aI460
aI463
aI456
aI459
aI457
aI458
aI457
aI458
aI459
aI462
aI460
aI463
aI457
aI457
aI462
aI460
aI459
aI461
aI460
aI455
aI459
aI460
aI459
aI459
aI459
aI459
aI457
aI462
aI460
aI458
aI460
aI458
aI459
aI457
aI458
aI455
aI460
aI460
aI460
aI461
aI461
aI460
aI459
aI460
aI456
aI456
aI460
aI457
aI459
aI457
aI460
aI458
aI460
aI461
aI460
aI460
aI464
aI462
aI460
aI462
aI457
aI461
aI459
aI462
aI462
aI458
aI459
aI456
aI459
aI457
aI461
aI461
aI459
aI456
aI460
aI460
aI460
aI460
aI460
aI459
aI457
aI463
aI460
aI458
aI458
aI462
aI457
aI460
aI457
aI457
aI459
aI459
aI460
aI460
aI459
aI462
aI459
aI461
aI460
aI459
aI460
aI457
aI462
aI462
aI460
aI461
aI459
aI462
aI463
aI459
aI459
aI457
aI457
aI459
aI460
aI460
aI459
aI460
aI458
aI462
aI460
aI457
aI461
aI464
aI463
aI459
aI457
aI458
aI460
aI460
aI460
aI459
aI459
aI460
aI457
aI460
aI461
aI460
aI461
aI463
aI461
aI461
aI459
aI461
aI460
aI460
aI461
aI458
aI459
aI463
aI455
aI460
aI457
aI460
aI458
aI456
aI457
aI462
aI459
aI460
aI457
aI459
aI456
aI460
aI462
aI457
aI458
aI461
aI460
aI460
aI457
aI463
aI458
aI463
aI462
aI460
aI459
aI459
aI463
aI457
aI460
aI458
aI457
aI461
aI457
aI455
aI462
aI456
aI460
aI460
aI457
aI459
aI459
aI459
aI460
aI463
aI461
aI460
aI459
aI456
aI455
aI457
aI459
aI460
aI460
aI458
aI460
aI455
aI456
aI460
aI460
aI462
aI460
aI459
aI458
aI460
aI456
aI455
aI456
aI460
aI460
aI462
aI462
aI462
aI460
aI463
aI459
aI459
aI460
aI457
aI464
aI459
aI455
aI459
aI458
aI460
aI460
aI459
aI459
aI459
aI458
aI459
aI460
aI457
aI456
aI461
aI457
aI462
aI459
aI461
aI464
aI459
aI458
aI458
aI460
aI461
aI460
aI460
aI457
aI460
aI458
aI460
aI457
aI462
aI458
aI460
aI460
aI462
aI455
aI457
aI457
aI455
aI458
aI460
aI456
aI457
aI462
aI462
aI456
aI460
aI457
aI457
aI457
aI462
aI462
aI456
aI459
aI459
aI459
aI459
aI460
aI456
aI460
aI456
aI462
aI460
aI460
aI461
aI456
aI458
aI456
aI460
aI460
aI460
aI459
aI458
aI460
aI460
aI459
aI460
aI460
aI459
aI455
aI459
aI463
aI457
aI460
aI460
aI460
aI457
aI459
aI460
aI462
aI461
aI457
aI463
aI459
aI460
aI459
aI461
aI459
aI460
aI460
aI458
aI457
aI460
aI463
aI459
aI459
aI456
aI457
aI457
aI461
aI455
aI459
aI460
aI459
aI459
aI459
aI460
aI456
aI463
aI460
aI458
aI455
aI460
aI457
aI460
aI460
aI460
aI459
aI458
aI460
aI457
aI462
aI459
aI460
aI455
aI459
aI459
aI456
aI458
aI456
aI459
aI459
aI459
aI457
aI458
aI459
aI458
aI459
aI460
aI459
aI458
aI461
aI457
aI458
aI461
aI462
aI459
aI460
aI456
aI459
aI460
aI459
aI461
aI460
aI459
aI460
aI462
aI459
aI460
aI461
aI458
aI462
aI459
aI460
aI458
aI456
aI456
aI455
aI459
aI457
aI461
aI457
aI458
aI459
aI459
aI460
aI460
aI460
aI459
aI459
aI457
aI460
aI460
aI459
aI460
aI456
aI460
aI459
aI460
aI463
aI456
aI455
aI458
aI460
aI460
aI457
aI457
aI460
aI460
aI461
aI460
aI460
aI460
aI458
aI459
aI461
aI458
aI462
aI460
aI459
aI460
aI457
aI458
aI457
aI460
aI458
aI459
aI458
aI457
aI460
aI460
aI460
aI459
aI463
aI460
aI457
aI459
aI460
aI459
aI456
aI460
aI460
aI460
aI461
aI456
aI460
aI461
aI459
aI461
aI460
aI460
aI463
aI459
aI462
aI459
aI460
aI456
aI459
aI457
aI463
aI457
aI456
aI460
aI459
aI460
aI457
aI460
aI459
aI463
aI457
aI463
aI463
aI460
aI460
aI460
aI460
aI459
aI457
aI459
aI460
aI459
aI456
aI460
aI462
aI460
aI459
aI459
aI459
aI458
aI459
aI455
aI455
aI460
aI460
aI460
aI461
aI459
aI460
aI458
aI457
aI461
aI463
aI459
aI459
aI458
aI459
aI459
aI460
aI462
aI460
aI459
aI460
aI459
aI460
aI459
aI458
aI457
aI458
aI462
aI457
aI458
aI458
aI460
aI460
aI458
aI457
aI457
aI459
aI458
aI460
aI457
aI463
aI461
aI460
aI458
aI460
aI459
aI458
aI460
aI457
aI458
aI459
aI459
aI459
aI459
aI460
aI459
aI457
aI460
aI461
aI460
aI462
aI459
aI457
aI457
aI457
aI458
aI459
aI455
aI459
aI461
aI460
aI460
aI463
aI460
aI459
aI456
aI460
aI461
aI460
aI463
aI457
aI462
aI458
aI459
aI455
aI460
aI459
aI461
aI460
aI458
aI460
aI461
aI460
aI460
aI459
aI461
aI460
aI461
aI460
aI460
aI457
aI460
aI460
aI455
aI456
aI458
aI461
aI457
aI457
aI457
aI459
aI457
aI458
aI458
aI457
aI455
aI459
aI462
aI456
aI459
aI460
aI457
aI457
aI463
aI460
aI461
aI462
aI459
aI465
aI460
aI459
aI458
aI456
aI460
aI460
aI460
aI462
aI457
aI460
aI457
aI460
aI454
aI457
aI459
aI459
aI460
aI459
aI457
aI461
aI459
aI459
aI460
aI456
aI457
aI457
aI460
aI460
aI460
aI457
aI457
aI458
aI458
aI460
aI459
aI455
aI459
aI457
aI459
aI459
aI460
aI457
aI458
aI458
aI458
aI460
aI460
aI459
aI461
aI457
aI460
aI455
aI459
aI462
aI457
aI460
aI460
aI457
aI456
aI461
aI460
aI463
aI458
aI457
aI457
aI462
aI460
aI460
aI462
aI460
aI461
aI459
aI462
aI459
aI460
aI458
aI460
aI459
aI459
aI458
aI462
aI462
aI459
aI459
aI457
aI460
aI459
aI459
aI457
aI459
aI459
aI459
aI460
aI459
aI459
aI460
aI456
aI456
aI459
aI460
aI459
aI460
aI458
aI462
aI458
aI460
aI458
aI461
aI457
aI457
aI460
aI462
aI460
aI463
aI462
aI462
aI457
aI461
aI461
aI460
aI457
aI461
aI460
aI460
aI457
aI459
aI460
aI457
aI460
aI460
aI459
aI459
aI460
aI457
aI459
aI459
aI458
aI457
aI461
aI459
aI458
aI458
aI457
aI460
aI460
aI459
aI457
aI460
aI459
aI460
aI459
aI458
aI461
aI458
aI462
aI458
aI458
aI459
aI460
aI460
aI459
aI460
aI456
aI460
aI464
aI457
aI460
aI461
aI457
aI460
aI458
aI462
aI462
aI459
aI456
aI460
aI455
aI457
aI459
aI459
aI462
aI459
aI458
aI460
aI455
aI461
aI458
aI459
aI455
aI460
aI459
aI464
aI461
aI460
aI462
aI455
aI457
aI460
aI460
aI460
aI458
aI461
aI460
aI457
aI456
aI459
aI461
aI462
aI460
aI457
aI462
aI460
aI458
aI462
aI457
aI465
aI461
aI455
aI460
aI454
aI459
aI457
aI458
aI460
aI459
aI455
aI459
aI459
aI460
aI460
aI460
aI455
aI460
aI463
aI460
aI461
aI455
aI463
aI458
aI460
aI456
aI462
aI460
aI456
aI461
aI456
aI458
aI460
aI460
aI459
aI457
aI459
aI461
aI461
aI457
aI460
aI460
aI459
aI457
aI458
aI458
aI460
aI460
aI458
aI460
aI461
aI460
aI461
aI460
aI460
aI460
aI462
aI455
aI458
aI456
aI456
aI461
aI460
aI459
aI459
aI459
aI463
aI460
aI460
aI461
aI459
aI458
aI458
aI459
aI457
aI457
aI459
aI459
aI463
aI463
aI461
aI461
aI460
aI459
aI461
aI460
aI459
aI458
aI461
aI459
aI457
aI456
aI460
aI457
aI458
aI458
aI458
aI462
aI462
aI459
aI456
aI460
aI460
aI460
asS'x'
p14
(lp15
I545
aI549
aI546
aI548
aI549
aI543
aI549
aI547
aI547
aI547
aI547
aI548
aI550
aI546
aI549
aI549
aI547
aI544
aI550
aI546
aI547
aI546
aI544
aI547
aI545
aI547
aI547
aI545
aI549
aI547
aI549
aI546
aI545
aI547
aI547
aI545
aI544
aI546
aI547
aI550
aI547
aI544
aI547
aI546
aI545
aI550
aI548
aI547
aI546
aI548
aI546
aI545
aI545
aI546
aI546
aI547
aI549
aI548
aI546
aI545
aI543
aI545
aI548
aI547
aI546
aI549
aI545
aI545
aI545
aI544
aI546
aI548
aI547
aI550
aI547
aI548
aI547
aI546
aI548
aI545
aI547
aI543
aI550
aI546
aI550
aI547
aI547
aI548
aI548
aI545
aI549
aI548
aI551
aI548
aI548
aI545
aI547
aI547
aI547
aI547
aI545
aI547
aI547
aI547
aI546
aI547
aI545
aI547
aI547
aI549
aI547
aI544
aI547
aI548
aI545
aI547
aI545
aI549
aI547
aI551
aI547
aI544
aI546
aI546
aI551
aI549
aI545
aI545
aI546
aI547
aI548
aI546
aI548
aI543
aI550
aI549
aI547
aI548
aI549
aI546
aI548
aI542
aI550
aI545
aI548
aI545
aI547
aI547
aI548
aI547
aI544
aI547
aI548
aI545
aI547
aI544
aI545
aI547
aI547
aI545
aI547
aI547
aI547
aI547
aI546
aI547
aI544
aI548
aI547
aI546
aI544
aI547
aI548
aI545
aI548
aI547
aI547
aI543
aI548
aI544
aI547
aI543
aI549
aI544
aI547
aI549
aI550
aI544
aI545
aI547
aI547
aI547
aI547
aI548
aI548
aI547
aI548
aI545
aI548
aI550
aI547
aI546
aI550
aI546
aI546
aI545
aI548
aI549
aI547
aI548
aI545
aI545
aI546
aI546
aI544
aI547
aI547
aI545
aI546
aI546
aI547
aI547
aI547
aI545
aI550
aI546
aI549
aI546
aI546
aI547
aI547
aI548
aI548
aI546
aI547
aI548
aI546
aI547
aI546
aI547
aI548
aI547
aI546
aI550
aI546
aI545
aI550
aI547
aI545
aI548
aI547
aI545
aI546
aI548
aI548
aI550
aI545
aI545
aI547
aI549
aI547
aI546
aI546
aI546
aI544
aI543
aI547
aI547
aI544
aI545
aI547
aI546
aI546
aI547
aI549
aI546
aI545
aI548
aI547
aI547
aI547
aI547
aI544
aI547
aI547
aI545
aI549
aI549
aI546
aI551
aI543
aI547
aI545
aI543
aI550
aI550
aI547
aI545
aI547
aI550
aI546
aI546
aI544
aI545
aI547
aI545
aI547
aI548
aI547
aI548
aI545
aI547
aI550
aI547
aI547
aI545
aI548
aI547
aI547
aI547
aI546
aI547
aI550
aI548
aI546
aI546
aI547
aI544
aI546
aI546
aI545
aI548
aI547
aI546
aI548
aI545
aI547
aI547
aI548
aI544
aI547
aI548
aI549
aI549
aI545
aI548
aI545
aI551
aI547
aI545
aI547
aI548
aI547
aI549
aI547
aI548
aI547
aI547
aI545
aI547
aI548
aI544
aI546
aI547
aI547
aI548
aI547
aI547
aI548
aI547
aI550
aI546
aI544
aI545
aI547
aI544
aI543
aI550
aI547
aI548
aI547
aI548
aI549
aI547
aI545
aI546
aI547
aI548
aI549
aI547
aI543
aI545
aI547
aI547
aI547
aI545
aI550
aI547
aI548
aI546
aI547
aI543
aI547
aI547
aI546
aI545
aI549
aI550
aI545
aI547
aI548
aI545
aI547
aI547
aI547
aI546
aI544
aI547
aI547
aI546
aI547
aI544
aI548
aI544
aI544
aI547
aI550
aI546
aI545
aI548
aI548
aI550
aI549
aI547
aI548
aI546
aI546
aI548
aI547
aI545
aI547
aI545
aI545
aI547
aI544
aI547
aI547
aI550
aI543
aI546
aI547
aI546
aI545
aI550
aI545
aI545
aI545
aI546
aI547
aI549
aI545
aI546
aI547
aI545
aI546
aI548
aI544
aI546
aI547
aI547
aI548
aI549
aI547
aI547
aI546
aI548
aI545
aI548
aI548
aI549
aI544
aI547
aI548
aI547
aI546
aI550
aI545
aI547
aI548
aI550
aI544
aI543
aI544
aI545
aI548
aI543
aI549
aI547
aI547
aI549
aI547
aI551
aI545
aI547
aI551
aI545
aI546
aI546
aI547
aI547
aI543
aI549
aI545
aI547
aI549
aI543
aI549
aI550
aI546
aI545
aI546
aI547
aI549
aI546
aI547
aI546
aI545
aI547
aI545
aI547
aI542
aI547
aI548
aI547
aI547
aI546
aI545
aI546
aI547
aI546
aI548
aI545
aI547
aI545
aI544
aI549
aI550
aI545
aI545
aI547
aI544
aI546
aI551
aI547
aI547
aI545
aI546
aI545
aI545
aI544
aI546
aI547
aI550
aI550
aI547
aI546
aI545
aI548
aI547
aI545
aI545
aI548
aI545
aI548
aI545
aI547
aI546
aI544
aI545
aI548
aI543
aI546
aI545
aI548
aI549
aI550
aI548
aI549
aI549
aI548
aI551
aI547
aI548
aI545
aI546
aI549
aI547
aI550
aI547
aI550
aI545
aI547
aI548
aI543
aI546
aI547
aI550
aI545
aI549
aI548
aI543
aI544
aI545
aI550
aI549
aI548
aI547
aI547
aI549
aI547
aI546
aI547
aI543
aI548
aI547
aI545
aI550
aI543
aI547
aI548
aI550
aI547
aI544
aI545
aI547
aI546
aI547
aI547
aI544
aI546
aI543
aI547
aI547
aI545
aI547
aI547
aI547
aI548
aI551
aI547
aI549
aI547
aI545
aI549
aI548
aI546
aI544
aI545
aI545
aI548
aI545
aI546
aI549
aI547
aI545
aI546
aI548
aI547
aI550
aI545
aI547
aI547
aI544
aI551
aI546
aI545
aI546
aI546
aI550
aI547
aI547
aI544
aI545
aI547
aI545
aI547
aI546
aI549
aI547
aI548
aI543
aI548
aI548
aI545
aI545
aI546
aI547
aI547
aI546
aI548
aI549
aI546
aI547
aI548
aI544
aI548
aI544
aI547
aI545
aI547
aI545
aI548
aI548
aI546
aI548
aI548
aI547
aI549
aI545
aI549
aI548
aI548
aI545
aI546
aI551
aI546
aI545
aI548
aI547
aI546
aI546
aI547
aI549
aI545
aI545
aI545
aI548
aI548
aI548
aI550
aI547
aI547
aI547
aI547
aI546
aI549
aI543
aI550
aI546
aI548
aI546
aI547
aI544
aI545
aI545
aI547
aI551
aI549
aI544
aI548
aI545
aI546
aI546
aI545
aI550
aI549
aI547
aI546
aI545
aI547
aI545
aI548
aI544
aI547
aI543
aI543
aI545
aI546
aI547
aI547
aI547
aI545
aI548
aI547
aI547
aI546
aI548
aI548
aI545
aI547
aI546
aI550
aI547
aI547
aI549
aI545
aI547
aI547
aI547
aI544
aI545
aI544
aI547
aI545
aI547
aI546
aI548
aI548
aI546
aI547
aI547
aI545
aI550
aI547
aI544
aI546
aI543
aI545
aI548
aI545
aI547
aI545
aI543
aI547
aI548
aI546
aI546
aI545
aI547
aI546
aI547
aI548
aI545
aI547
aI544
aI547
aI547
aI545
aI545
aI546
aI546
aI547
aI548
aI545
aI547
aI550
aI547
aI547
aI545
aI547
aI545
aI546
aI545
aI545
aI545
aI546
aI548
aI547
aI549
aI545
aI545
aI546
aI547
aI547
aI546
aI548
aI548
aI546
aI548
aI548
aI547
aI547
aI546
aI548
aI547
aI546
aI547
aI547
aI545
aI546
aI546
aI545
aI547
aI548
aI550
aI545
aI549
aI546
aI545
aI549
aI547
aI548
aI542
aI546
aI547
aI547
aI548
aI548
aI547
aI545
aI545
aI546
aI547
aI547
aI548
aI549
aI545
aI550
aI548
aI548
aI550
aI546
aI550
aI549
aI547
aI547
aI545
aI544
aI548
aI550
aI546
aI547
aI546
aI545
aI547
aI545
aI547
aI547
aI545
aI547
aI548
aI548
aI550
aI547
aI547
aI551
aI547
aI545
aI547
aI546
aI547
aI548
aI545
aI547
aI546
aI547
aI547
aI547
aI545
aI548
aI549
aI547
aI545
aI550
aI551
aI545
aI544
aI545
aI546
aI547
aI546
aI551
aI548
aI550
aI545
aI547
aI546
aI548
aI545
aI544
aI547
aI548
aI546
aI548
aI543
aI547
aI547
aI550
aI548
aI546
aI545
aI543
aI544
aI546
aI547
aI543
aI547
aI548
aI547
aI550
aI548
aI546
aI548
aI547
aI547
aI547
aI543
aI545
aI548
aI543
aI547
aI547
aI548
aI545
aI548
aI544
aI546
aI547
aI546
aI545
aI548
aI549
aI548
aI548
aI546
aI544
aI545
aI545
aI547
aI546
aI543
aI547
aI551
aI546
aI547
aI545
aI546
aI547
aI547
aI545
aI550
aI549
aI545
aI546
aI550
aI547
aI549
aI546
aI545
aI547
aI549
aI545
aI547
aI547
aI547
aI545
aI546
aI547
aI546
aI543
aI546
aI547
aI545
aI550
aI549
aI549
aI549
aI545
aI548
aI548
aI546
aI547
aI546
aI547
aI544
aI548
aI548
aI548
aI545
aI550
aI543
aI550
aI544
aI548
aI553
aI546
aI547
aI547
aI546
aI547
aI550
aI546
aI545
aI545
aI543
aI546
aI548
aI547
aI550
aI546
aI544
aI543
aI545
aI548
aI547
aI548
aI547
aI548
aI550
aI547
aI547
aI547
aI546
aI545
aI545
aI546
aI545
aI547
aI550
aI551
aI547
aI547
aI547
aI544
aI547
aI547
aI546
aI547
aI549
aI547
aI549
aI543
aI545
aI547
aI548
aI548
aI547
aI545
aI546
aI548
aI549
aI547
aI545
aI549
aI546
aI546
aI548
aI545
aI546
aI547
aI547
aI544
aI549
aI546
aI545
aI546
aI544
aI551
aI548
aI550
aI547
aI547
aI547
aI548
aI549
aI548
aI545
aI546
aI547
aI550
aI543
aI548
aI547
aI547
aI549
aI547
aI547
aI547
aI549
aI547
aI547
aI546
aI546
aI548
aI546
aI546
aI545
aI547
aI548
aI542
aI545
aI551
aI545
aI543
aI547
aI545
aI544
aI547
aI549
aI544
aI549
aI543
aI549
aI544
aI545
aI546
aI547
aI545
aI549
aI545
aI547
aI547
aI547
aI545
aI547
aI550
aI545
aI549
aI544
aI545
aI544
aI547
aI548
aI548
aI548
aI548
aI543
aI547
aI547
aI548
aI547
aI547
aI548
aI545
aI547
aI551
aI549
aI547
aI547
aI546
aI549
aI547
aI546
aI548
aI550
aI547
aI546
aI551
aI546
aI547
aI544
aI546
aI548
aI547
aI548
aI546
aI550
aI548
aI548
aI549
aI547
aI551
aI548
aI545
aI550
aI545
aI546
aI549
aI545
aI544
aI546
aI544
aI549
aI548
aI543
aI550
aI546
aI547
aI547
aI550
aI545
aI546
aI544
aI546
aI544
aI548
aI544
aI548
aI547
aI548
aI547
aI550
aI547
aI545
aI546
aI550
aI548
aI547
aI546
aI547
aI547
aI547
aI547
aI544
aI547
aI547
aI547
aI548
aI548
aI547
aI546
aI548
aI548
aI542
aI546
aI548
aI545
aI545
aI545
aI547
aI547
aI546
aI546
aI549
aI546
aI546
aI546
aI547
aI545
aI545
aI547
aI546
aI548
aI547
aI545
aI545
aI547
aI544
aI547
aI545
aI548
aI547
aI548
aI543
aI547
aI546
aI547
aI546
aI548
aI549
aI548
aI544
aI546
aI545
aI548
aI545
aI548
aI546
aI544
aI547
aI548
aI548
aI550
aI546
aI547
asS'z'
p16
(lp17
I771
aI776
aI775
aI775
aI776
aI776
aI774
aI777
aI774
aI775
aI777
aI774
aI774
aI775
aI774
aI775
aI775
aI775
aI773
aI776
aI775
aI776
aI775
aI774
aI774
aI775
aI774
aI777
aI774
aI773
aI774
aI770
aI777
aI774
aI774
aI775
aI775
aI773
aI775
aI773
aI775
aI775
aI774
aI774
aI775
aI775
aI775
aI774
aI774
aI774
aI775
aI776
aI773
aI774
aI772
aI775
aI772
aI774
aI775
aI779
aI771
aI774
aI775
aI775
aI775
aI774
aI772
aI775
aI775
aI774
aI773
aI773
aI771
aI775
aI775
aI774
aI772
aI774
aI773
aI777
aI775
aI775
aI774
aI775
aI775
aI774
aI772
aI774
aI772
aI776
aI771
aI774
aI774
aI775
aI776
aI776
aI776
aI775
aI776
aI771
aI776
aI777
aI775
aI775
aI773
aI777
aI771
aI775
aI775
aI776
aI774
aI775
aI775
aI775
aI780
aI776
aI773
aI777
aI775
aI776
aI772
aI780
aI775
aI775
aI772
aI775
aI774
aI775
aI776
aI775
aI777
aI775
aI773
aI774
aI775
aI775
aI775
aI774
aI774
aI773
aI777
aI774
aI772
aI777
aI776
aI774
aI774
aI777
aI774
aI776
aI774
aI774
aI775
aI775
aI774
aI771
aI775
aI776
aI774
aI774
aI777
aI772
aI775
aI775
aI777
aI775
aI775
aI776
aI775
aI775
aI775
aI773
aI775
aI773
aI771
aI777
aI777
aI774
aI775
aI776
aI771
aI774
aI772
aI773
aI772
aI775
aI775
aI774
aI774
aI775
aI773
aI777
aI775
aI775
aI774
aI775
aI775
aI771
aI771
aI774
aI776
aI774
aI775
aI775
aI774
aI777
aI774
aI775
aI776
aI773
aI777
aI776
aI775
aI774
aI774
aI776
aI780
aI775
aI772
aI775
aI775
aI773
aI772
aI772
aI771
aI774
aI776
aI774
aI776
aI775
aI773
aI775
aI776
aI775
aI774
aI774
aI777
aI775
aI776
aI774
aI775
aI772
aI776
aI774
aI775
aI776
aI774
aI774
aI775
aI774
aI772
aI775
aI775
aI777
aI776
aI773
aI777
aI775
aI776
aI775
aI776
aI776
aI775
aI777
aI775
aI774
aI775
aI773
aI775
aI774
aI777
aI774
aI774
aI774
aI773
aI777
aI772
aI777
aI772
aI777
aI776
aI775
aI780
aI776
aI775
aI775
aI775
aI775
aI775
aI775
aI776
aI775
aI772
aI775
aI775
aI774
aI775
aI774
aI775
aI774
aI772
aI772
aI774
aI775
aI775
aI774
aI777
aI780
aI777
aI776
aI775
aI774
aI772
aI773
aI777
aI776
aI775
aI774
aI775
aI775
aI774
aI773
aI775
aI774
aI775
aI777
aI775
aI774
aI771
aI777
aI774
aI777
aI773
aI773
aI774
aI775
aI774
aI775
aI775
aI771
aI774
aI776
aI773
aI775
aI775
aI776
aI776
aI775
aI777
aI773
aI774
aI775
aI777
aI774
aI772
aI776
aI775
aI775
aI773
aI773
aI775
aI775
aI771
aI774
aI775
aI774
aI774
aI776
aI774
aI774
aI776
aI774
aI774
aI775
aI774
aI774
aI772
aI777
aI777
aI776
aI772
aI775
aI772
aI775
aI774
aI776
aI776
aI775
aI773
aI775
aI776
aI771
aI776
aI774
aI775
aI774
aI775
aI773
aI773
aI776
aI775
aI781
aI774
aI779
aI775
aI773
aI772
aI777
aI774
aI775
aI775
aI779
aI775
aI775
aI776
aI774
aI775
aI774
aI773
aI771
aI779
aI775
aI780
aI774
aI772
aI774
aI775
aI774
aI769
aI775
aI776
aI775
aI774
aI777
aI775
aI775
aI775
aI776
aI773
aI776
aI775
aI777
aI775
aI775
aI777
aI777
aI776
aI770
aI775
aI771
aI775
aI775
aI775
aI773
aI775
aI775
aI773
aI773
aI776
aI772
aI774
aI774
aI774
aI772
aI777
aI775
aI775
aI776
aI773
aI771
aI776
aI775
aI774
aI776
aI774
aI775
aI776
aI776
aI774
aI774
aI774
aI775
aI774
aI772
aI777
aI776
aI775
aI774
aI775
aI774
aI777
aI776
aI774
aI774
aI776
aI774
aI773
aI775
aI775
aI773
aI777
aI775
aI777
aI777
aI775
aI777
aI777
aI775
aI775
aI775
aI777
aI772
aI776
aI774
aI774
aI776
aI776
aI774
aI776
aI775
aI777
aI775
aI776
aI774
aI775
aI775
aI774
aI774
aI775
aI777
aI771
aI776
aI772
aI775
aI776
aI775
aI771
aI773
aI776
aI774
aI775
aI776
aI777
aI772
aI775
aI774
aI775
aI774
aI774
aI774
aI774
aI774
aI773
aI774
aI776
aI777
aI774
aI771
aI772
aI774
aI775
aI771
aI775
aI774
aI774
aI774
aI775
aI775
aI777
aI775
aI775
aI775
aI779
aI775
aI777
aI775
aI777
aI776
aI773
aI775
aI774
aI777
aI773
aI772
aI773
aI774
aI775
aI774
aI771
aI774
aI772
aI775
aI774
aI775
aI776
aI775
aI774
aI775
aI777
aI773
aI774
aI773
aI775
aI776
aI776
aI774
aI776
aI775
aI773
aI773
aI774
aI775
aI775
aI775
aI777
aI776
aI777
aI775
aI776
aI777
aI774
aI775
aI775
aI775
aI773
aI777
aI776
aI775
aI775
aI775
aI776
aI775
aI775
aI774
aI773
aI773
aI773
aI772
aI776
aI773
aI774
aI775
aI776
aI776
aI777
aI776
aI773
aI771
aI773
aI774
aI774
aI773
aI774
aI775
aI773
aI774
aI775
aI773
aI772
aI776
aI777
aI773
aI775
aI774
aI771
aI780
aI777
aI775
aI775
aI774
aI775
aI775
aI772
aI771
aI775
aI776
aI775
aI773
aI776
aI773
aI772
aI776
aI773
aI773
aI774
aI774
aI775
aI775
aI772
aI776
aI775
aI777
aI774
aI776
aI775
aI773
aI772
aI775
aI775
aI773
aI775
aI774
aI775
aI775
aI779
aI775
aI776
aI774
aI775
aI776
aI774
aI774
aI773
aI777
aI775
aI774
aI774
aI773
aI776
aI776
aI777
aI776
aI775
aI775
aI775
aI775
aI774
aI773
aI776
aI773
aI772
aI774
aI772
aI775
aI774
aI774
aI774
aI775
aI775
aI774
aI773
aI776
aI775
aI776
aI775
aI775
aI775
aI773
aI773
aI777
aI774
aI775
aI777
aI774
aI774
aI777
aI774
aI776
aI777
aI775
aI770
aI775
aI775
aI772
aI775
aI777
aI776
aI776
aI775
aI776
aI773
aI776
aI773
aI774
aI777
aI775
aI775
aI774
aI775
aI775
aI774
aI776
aI775
aI776
aI775
aI771
aI776
aI771
aI772
aI774
aI774
aI774
aI775
aI772
aI773
aI776
aI775
aI776
aI774
aI775
aI775
aI772
aI771
aI773
aI772
aI771
aI775
aI775
aI774
aI775
aI774
aI775
aI777
aI774
aI775
aI775
aI775
aI775
aI775
aI772
aI772
aI776
aI773
aI774
aI771
aI774
aI776
aI772
aI777
aI776
aI775
aI775
aI776
aI777
aI777
aI772
aI774
aI773
aI773
aI773
aI775
aI775
aI775
aI775
aI776
aI775
aI776
aI775
aI775
aI775
aI775
aI772
aI775
aI775
aI774
aI775
aI771
aI773
aI775
aI774
aI772
aI773
aI775
aI771
aI775
aI771
aI775
aI776
aI775
aI777
aI774
aI774
aI776
aI775
aI774
aI774
aI774
aI777
aI774
aI775
aI776
aI773
aI771
aI775
aI775
aI776
aI775
aI772
aI771
aI776
aI774
aI775
aI777
aI777
aI773
aI775
aI775
aI774
aI775
aI774
aI777
aI774
aI776
aI773
aI774
aI774
aI775
aI775
aI776
aI775
aI774
aI774
aI774
aI774
aI772
aI772
aI771
aI774
aI776
aI776
aI774
aI773
aI771
aI774
aI773
aI775
aI776
aI776
aI774
aI774
aI776
aI771
aI775
aI777
aI773
aI776
aI774
aI771
aI772
aI775
aI775
aI775
aI772
aI775
aI774
aI774
aI774
aI775
aI772
aI775
aI777
aI773
aI774
aI775
aI773
aI776
aI773
aI776
aI775
aI774
aI777
aI775
aI777
aI776
aI775
aI775
aI775
aI775
aI774
aI775
aI777
aI771
aI776
aI773
aI775
aI774
aI775
aI775
aI775
aI773
aI772
aI775
aI775
aI774
aI775
aI775
aI774
aI775
aI775
aI774
aI776
aI773
aI774
aI772
aI774
aI774
aI775
aI774
aI775
aI775
aI774
aI775
aI776
aI775
aI772
aI776
aI775
aI775
aI775
aI775
aI774
aI774
aI774
aI772
aI772
aI775
aI774
aI775
aI777
aI774
aI775
aI776
aI775
aI775
aI772
aI775
aI775
aI774
aI775
aI774
aI775
aI774
aI775
aI777
aI773
aI775
aI775
aI774
aI775
aI776
aI772
aI775
aI774
aI776
aI776
aI774
aI774
aI773
aI775
aI772
aI775
aI777
aI774
aI772
aI775
aI775
aI775
aI775
aI772
aI772
aI773
aI770
aI774
aI775
aI776
aI775
aI777
aI774
aI775
aI772
aI775
aI775
aI775
aI770
aI775
aI774
aI774
aI775
aI775
aI774
aI775
aI775
aI775
aI775
aI776
aI777
aI772
aI774
aI775
aI775
aI775
aI776
aI775
aI775
aI772
aI775
aI769
aI772
aI773
aI776
aI774
aI775
aI774
aI774
aI771
aI771
aI775
aI772
aI771
aI777
aI774
aI776
aI774
aI772
aI777
aI773
aI775
aI771
aI776
aI775
aI775
aI775
aI777
aI775
aI774
aI777
aI776
aI773
aI775
aI776
aI776
aI771
aI775
aI768
aI775
aI775
aI775
aI771
aI775
aI772
aI775
aI773
aI775
aI775
aI775
aI773
aI774
aI775
aI774
aI772
aI775
aI773
aI771
aI775
aI774
aI774
aI774
aI776
aI774
aI775
aI775
aI775
aI775
aI777
aI774
aI774
aI774
aI775
aI769
aI774
aI773
aI773
aI775
aI775
aI772
aI775
aI774
aI775
aI772
aI774
aI772
aI775
aI773
aI773
aI779
aI775
aI775
aI776
aI773
aI772
aI775
aI774
aI775
aI774
aI774
aI773
aI776
aI772
aI773
aI775
aI772
aI774
aI771
aI777
aI774
aI779
aI774
aI779
aI774
aI775
aI776
aI775
aI774
aI777
aI772
aI775
aI774
aI775
aI777
aI775
aI774
aI775
aI774
aI774
aI776
aI774
aI776
aI775
aI775
aI775
aI775
aI775
aI776
aI775
aI775
aI773
aI773
aI772
aI775
aI775
aI775
aI772
aI776
aI772
aI772
aI775
aI775
aI777
aI774
aI772
aI776
aI777
aI774
aI779
aI775
aI775
aI772
aI775
aI773
aI775
aI773
aI775
aI775
aI774
aI777
aI774
aI773
aI776
aI775
aI775
aI775
aI775
aI775
aI774
aI775
aI775
aI774
aI771
aI775
aI775
aI775
aI775
aI775
aI772
aI776
aI774
aI773
aI777
aI773
aI776
aI775
aI772
aI776
aI774
aI774
aI772
aI774
aI774
aI774
aI774
aI775
aI775
aI774
aI776
aI775
aI776
aI774
aI773
aI774
aI774
aI775
aI776
aI774
aI775
aI772
aI776
aI773
aI771
aI773
aI776
aI776
aI775
aI774
aI775
aI776
aI775
aI773
aI774
aI777
aI780
aI775
aI774
aI774
aI775
aI774
aI777
aI779
aI777
aI773
aI774
aI775
aI775
aI777
aI776
aI773
aI777
aI775
aI776
aI775
aI774
aI774
aI775
aI771
aI772
aI776
asg0
(g1
tp18
Rp19
g4
(lp20
I335
aI335
aI337
aI335
aI334
aI336
aI336
aI335
aI336
aI336
aI335
aI335
aI337
aI337
aI336
aI335
aI337
aI335
aI337
aI335
aI335
aI335
aI334
aI335
aI336
aI335
aI336
aI337
aI336
aI335
aI335
aI336
aI336
aI335
aI336
aI336
aI336
aI336
aI335
aI336
aI336
aI335
aI335
aI336
aI335
aI336
aI335
aI334
aI336
aI335
aI335
aI335
aI335
aI335
aI335
aI335
aI337
aI336
aI337
aI337
aI335
aI335
aI335
aI335
aI336
aI335
aI334
aI337
aI335
aI334
aI336
aI337
aI335
aI336
aI337
aI336
aI336
aI336
aI337
aI336
aI336
aI337
aI336
aI335
aI336
aI336
aI335
aI337
aI337
aI337
aI335
aI336
aI335
aI335
aI336
aI336
aI335
aI335
aI335
aI335
aI335
aI335
aI337
aI337
aI336
aI337
aI336
aI336
aI336
aI337
aI335
aI336
aI335
aI336
aI335
aI335
aI336
aI336
aI334
aI336
aI337
aI335
aI336
aI335
aI335
aI336
aI336
aI336
aI335
aI336
aI335
aI335
aI336
aI336
aI336
aI336
aI335
aI335
aI335
aI335
aI335
aI335
aI336
aI335
aI336
aI336
aI337
aI336
aI336
aI336
aI336
aI337
aI335
aI335
aI334
aI337
aI335
aI335
aI334
aI334
aI335
aI336
aI336
aI337
aI336
aI337
aI336
aI335
aI337
aI336
aI337
aI335
aI335
aI337
aI336
aI337
aI335
aI335
aI335
aI335
aI335
aI334
aI335
aI335
aI335
aI335
aI335
aI336
aI337
aI336
aI337
aI337
aI337
aI336
aI336
aI335
aI336
aI335
aI335
aI334
aI336
aI335
aI335
aI336
aI335
aI336
aI336
aI336
aI337
aI337
aI336
aI337
aI336
aI335
aI335
aI335
aI336
aI335
aI336
aI336
aI335
aI335
aI335
aI335
aI336
aI337
aI336
aI336
aI335
aI336
aI336
aI336
aI336
aI336
aI337
aI335
aI336
aI335
aI335
aI337
aI335
aI335
aI335
aI336
aI335
aI337
aI336
aI337
aI336
aI335
aI335
aI335
aI335
aI335
aI337
aI337
aI336
aI336
aI336
aI335
aI335
aI335
aI335
aI335
aI335
aI336
aI335
aI335
aI337
aI335
aI336
aI335
aI335
aI336
aI335
aI337
aI336
aI336
aI336
aI336
aI335
aI336
aI336
aI336
aI335
aI334
aI336
aI335
aI336
aI336
aI337
aI335
aI336
aI335
aI334
aI336
aI336
aI336
aI336
aI335
aI336
aI336
aI337
aI335
aI335
aI335
aI335
aI335
aI336
aI335
aI335
aI335
aI336
aI335
aI336
aI335
aI337
aI335
aI335
aI335
aI335
aI335
aI336
aI336
aI335
aI336
aI335
aI336
aI335
aI335
aI336
aI336
aI335
aI336
aI335
aI334
aI335
aI337
aI335
aI337
aI336
aI335
aI335
aI336
aI337
aI335
aI335
aI336
aI335
aI336
aI336
aI335
aI335
aI336
aI336
aI336
aI336
aI336
aI336
aI336
aI334
aI335
aI335
aI335
aI336
aI335
aI335
aI335
aI335
aI335
aI336
aI336
aI336
aI336
aI336
aI336
aI334
aI336
aI335
aI335
aI336
aI335
aI335
aI336
aI335
aI334
aI336
aI335
aI335
aI335
aI336
aI335
aI335
aI335
aI336
aI335
aI336
aI336
aI336
aI337
aI336
aI335
aI336
aI335
aI335
aI336
aI336
aI336
aI337
aI335
aI335
aI335
aI336
aI336
aI337
aI336
aI336
aI335
aI335
aI335
aI335
aI339
aI336
aI336
aI337
aI335
aI337
aI335
aI335
aI335
aI335
aI336
aI335
aI336
aI335
aI337
aI335
aI336
aI336
aI335
aI336
aI336
aI336
aI337
aI344
aI148
aI301
aI111
aI284
aI175
aI195
aI45
aI191
aI248
aI220
aI173
aI130
aI172
aI142
aI248
aI169
aI215
aI105
aI195
aI262
aI102
aI246
aI149
aI193
aI151
aI253
aI157
aI189
aI161
aI186
aI194
aI169
aI196
aI180
aI175
aI141
aI213
aI163
aI244
aI118
aI234
aI150
aI215
aI141
aI243
aI110
aI257
aI151
aI183
aI193
aI172
aI186
aI206
aI147
aI187
aI163
aI225
aI185
aI152
aI180
aI191
aI207
aI166
aI217
aI127
aI204
aI154
aI236
aI144
aI204
aI162
aI210
aI140
aI177
aI212
aI172
aI220
aI92
aI255
aI157
aI221
aI155
aI176
aI172
aI184
aI268
aI96
aI199
aI153
aI229
aI188
aI81
aI276
aI219
aI157
aI175
aI191
aI131
aI187
aI275
aI126
aI147
aI186
aI254
aI335
aI336
aI336
aI335
aI336
aI336
aI336
aI335
aI335
aI336
aI336
aI336
aI335
aI336
aI336
aI335
aI335
aI336
aI335
aI334
aI335
aI334
aI334
aI336
aI335
aI335
aI336
aI334
aI335
aI335
aI335
aI335
aI335
aI335
aI335
aI334
aI336
aI335
aI335
aI336
aI335
aI334
aI336
aI335
aI335
aI335
aI336
aI334
aI336
aI336
aI337
aI336
aI335
aI335
aI335
aI335
aI335
aI333
aI336
aI334
aI335
aI335
aI335
aI335
aI335
aI333
aI335
aI334
aI336
aI335
aI334
aI334
aI336
aI334
aI336
aI335
aI335
aI335
aI335
aI336
aI335
aI335
aI335
aI335
aI335
aI336
aI334
aI335
aI335
aI335
aI334
aI336
aI334
aI336
aI336
aI335
aI336
aI336
aI335
aI337
aI335
aI335
aI336
aI335
aI335
aI336
aI335
aI336
aI335
aI335
aI335
aI335
aI335
aI336
aI335
aI335
aI335
aI335
aI335
aI336
aI336
aI337
aI335
aI335
aI335
aI336
aI335
aI336
aI335
aI336
aI337
aI335
aI334
aI334
aI335
aI335
aI335
aI335
aI336
aI335
aI335
aI335
aI335
aI335
aI335
aI335
aI334
aI335
aI335
aI335
aI335
aI337
aI336
aI335
aI335
aI336
aI335
aI335
aI335
aI334
aI335
aI335
aI336
aI336
aI335
aI335
aI336
aI335
aI334
aI336
aI335
aI335
aI336
aI335
aI336
aI335
aI337
aI335
aI336
aI335
aI335
aI335
aI335
aI335
aI336
aI335
aI335
aI335
aI335
aI336
aI335
aI335
aI336
aI335
aI336
aI335
aI335
aI335
aI335
aI336
aI336
aI335
aI336
aI335
aI335
aI335
aI334
aI335
aI335
aI335
aI335
aI336
aI335
aI335
aI335
aI336
aI335
aI335
aI336
aI336
aI336
aI335
aI335
aI335
aI335
aI336
aI335
aI335
aI334
aI336
aI335
aI334
aI335
aI335
aI334
aI337
aI336
aI335
aI335
aI335
aI335
aI335
aI336
aI336
aI336
aI335
aI335
aI335
aI336
aI336
aI335
aI337
aI335
aI335
aI336
aI335
aI334
aI335
aI335
aI335
aI335
aI336
aI335
aI335
aI335
aI335
aI335
aI335
aI335
aI336
aI334
aI336
aI335
aI335
aI336
aI335
aI335
aI335
aI335
aI334
aI335
aI335
aI335
aI335
aI336
aI336
aI335
aI335
aI335
aI335
aI335
aI336
aI335
aI336
aI335
aI335
aI335
aI335
aI335
aI335
aI337
aI334
aI335
aI334
aI336
aI335
aI336
aI336
aI335
aI335
aI337
aI335
aI335
aI336
aI335
aI335
aI336
aI335
aI336
aI335
aI337
aI335
aI335
aI336
aI334
aI336
aI336
aI335
aI336
aI335
aI336
aI336
aI336
aI336
aI336
aI336
aI335
aI335
aI334
aI336
aI335
aI335
aI336
aI335
aI334
aI336
aI335
aI334
aI335
aI335
aI335
aI336
aI335
asg6
(lp21
I493
aI492
aI491
aI491
aI493
aI491
aI491
aI495
aI491
aI491
aI499
aI491
aI492
aI505
aI492
aI491
aI504
aI492
aI502
aI492
aI491
aI497
aI492
aI491
aI492
aI494
aI491
aI491
aI497
aI491
aI491
aI505
aI492
aI492
aI503
aI492
aI492
aI499
aI492
aI492
aI495
aI492
aI492
aI492
aI493
aI492
aI491
aI494
aI491
aI491
aI496
aI491
aI491
aI503
aI492
aI492
aI505
aI492
aI492
aI504
aI492
aI491
aI499
aI492
aI491
aI495
aI492
aI491
aI492
aI494
aI492
aI491
aI495
aI492
aI491
aI496
aI491
aI491
aI503
aI491
aI491
aI505
aI492
aI491
aI504
aI492
aI491
aI499
aI492
aI492
aI495
aI492
aI491
aI493
aI491
aI491
aI494
aI491
aI492
aI496
aI492
aI491
aI503
aI491
aI492
aI505
aI492
aI491
aI503
aI492
aI491
aI499
aI492
aI491
aI495
aI492
aI491
aI491
aI493
aI492
aI491
aI494
aI491
aI492
aI501
aI492
aI492
aI504
aI504
aI492
aI499
aI492
aI492
aI491
aI493
aI491
aI491
aI493
aI492
aI492
aI499
aI491
aI491
aI505
aI492
aI492
aI504
aI492
aI492
aI502
aI492
aI492
aI492
aI492
aI493
aI492
aI494
aI492
aI491
aI496
aI492
aI492
aI499
aI492
aI492
aI506
aI492
aI492
aI504
aI492
aI492
aI502
aI492
aI492
aI498
aI492
aI492
aI492
aI494
aI491
aI492
aI494
aI492
aI491
aI496
aI491
aI492
aI499
aI492
aI492
aI505
aI492
aI491
aI504
aI492
aI492
aI502
aI492
aI497
aI492
aI491
aI491
aI494
aI492
aI491
aI497
aI492
aI492
aI505
aI492
aI492
aI504
aI492
aI492
aI492
aI491
aI495
aI492
aI492
aI492
aI493
aI492
aI491
aI494
aI492
aI491
aI497
aI492
aI502
aI492
aI492
aI505
aI492
aI492
aI504
aI492
aI491
aI499
aI492
aI491
aI496
aI493
aI492
aI492
aI494
aI492
aI494
aI492
aI492
aI497
aI492
aI492
aI502
aI492
aI492
aI505
aI491
aI504
aI492
aI492
aI499
aI492
aI492
aI496
aI493
aI492
aI491
aI493
aI492
aI491
aI494
aI492
aI497
aI492
aI492
aI503
aI491
aI491
aI505
aI492
aI492
aI504
aI492
aI491
aI499
aI492
aI492
aI496
aI492
aI492
aI492
aI494
aI491
aI492
aI494
aI492
aI492
aI502
aI492
aI492
aI504
aI492
aI492
aI498
aI492
aI491
aI493
aI493
aI492
aI492
aI494
aI491
aI492
aI495
aI492
aI492
aI499
aI492
aI492
aI505
aI492
aI492
aI504
aI491
aI492
aI502
aI492
aI492
aI498
aI493
aI491
aI493
aI492
aI491
aI491
aI494
aI492
aI491
aI496
aI492
aI492
aI499
aI492
aI492
aI505
aI492
aI492
aI504
aI492
aI492
aI502
aI492
aI492
aI497
aI493
aI492
aI493
aI492
aI491
aI491
aI494
aI492
aI492
aI496
aI492
aI492
aI500
aI492
aI491
aI505
aI491
aI492
aI504
aI492
aI491
aI502
aI492
aI492
aI498
aI492
aI491
aI493
aI493
aI491
aI491
aI493
aI491
aI491
aI496
aI492
aI491
aI499
aI492
aI492
aI506
aI492
aI492
aI503
aI492
aI492
aI496
aI493
aI492
aI492
aI495
aI492
aI491
aI496
aI492
aI492
aI503
aI492
aI492
aI505
aI492
aI491
aI504
aI492
aI492
aI499
aI506
aI492
aI496
aI492
aI492
aI494
aI492
aI492
aI494
aI491
aI492
aI497
aI492
aI492
aI504
aI492
aI491
aI505
aI491
aI491
aI492
aI492
aI492
aI492
aI494
aI490
aI489
aI488
aI492
aI488
aI489
aI489
aI489
aI488
aI493
aI488
aI488
aI500
aI489
aI489
aI500
aI490
aI487
aI501
aI489
aI488
aI497
aI487
aI489
aI492
aI491
aI488
aI488
aI489
aI489
aI488
aI491
aI493
aI488
aI488
aI500
aI489
aI488
aI504
aI488
aI489
aI500
aI489
aI487
aI497
aI488
aI489
aI488
aI490
aI488
aI489
aI493
aI488
aI488
aI502
aI488
aI489
aI500
aI488
aI489
aI499
aI489
aI488
aI494
aI488
aI488
aI488
aI491
aI488
aI489
aI491
aI489
aI487
aI493
aI490
aI488
aI496
aI487
aI489
aI502
aI489
aI487
aI501
aI488
aI488
aI499
aI487
aI489
aI495
aI489
aI486
aI489
aI492
aI487
aI487
aI491
aI487
aI488
aI494
aI489
aI487
aI496
aI488
aI489
aI497
aI491
aI491
aI502
aI491
aI491
aI505
aI492
aI492
aI504
aI492
aI491
aI500
aI492
aI491
aI496
aI493
aI491
aI491
aI493
aI491
aI491
aI494
aI491
aI491
aI502
aI492
aI492
aI504
aI492
aI491
aI498
aI492
aI491
aI491
aI492
aI491
aI491
aI494
aI491
aI491
aI496
aI492
aI492
aI500
aI491
aI492
aI506
aI492
aI492
aI504
aI492
aI491
aI502
aI491
aI491
aI498
aI492
aI492
aI493
aI492
aI491
aI491
aI494
aI492
aI496
aI492
aI492
aI499
aI492
aI491
aI505
aI491
aI491
aI504
aI491
aI491
aI502
aI492
aI491
aI498
aI492
aI492
aI492
aI493
aI492
aI491
aI494
aI491
aI492
aI495
aI491
aI492
aI499
aI491
aI492
aI505
aI491
aI491
aI504
aI503
aI491
aI505
aI491
aI491
aI504
aI492
aI491
aI499
aI492
aI492
aI495
aI492
aI491
aI491
aI493
aI491
aI491
aI494
aI491
aI491
aI497
aI492
aI491
aI504
aI492
aI492
aI505
aI491
aI491
aI504
aI492
aI491
aI499
aI492
aI492
aI496
aI492
aI492
aI491
aI493
aI491
aI491
aI494
aI491
aI492
aI496
aI492
aI491
aI503
aI492
aI492
aI505
aI492
aI492
aI504
aI491
aI491
aI500
aI492
aI491
aI496
aI492
aI491
aI492
aI492
aI491
aI492
aI495
aI492
aI491
aI497
aI492
aI504
aI492
aI492
aI505
aI491
aI491
aI504
aI491
aI491
aI500
aI492
aI491
aI494
aI491
aI491
aI496
aI492
aI491
aI505
aI492
aI491
aI504
aI491
aI491
aI501
aI492
aI492
aI498
aI492
aI492
aI491
aI491
aI491
aI494
aI491
aI491
aI496
aI491
aI491
aI498
aI492
aI491
aI506
aI491
aI492
aI504
aI492
aI491
aI502
aI492
aI492
aI498
aI492
aI491
aI491
aI492
aI492
aI491
aI494
aI491
aI492
aI496
aI491
aI491
aI499
aI491
aI491
aI507
aI492
aI492
aI504
aI491
aI491
aI502
aI492
aI491
aI498
aI492
aI491
aI491
aI492
aI491
aI491
aI494
aI491
aI491
aI496
aI492
aI491
aI499
aI491
aI492
aI491
aI491
aI492
aI491
aI502
aI492
aI491
aI498
aI492
aI492
aI491
aI492
aI491
aI491
aI494
aI491
aI491
aI500
aI492
aI491
aI504
aI492
aI491
aI499
aI492
aI491
aI495
aI492
aI491
aI491
aI493
aI492
aI492
aI494
aI491
aI491
aI496
aI492
aI491
aI503
aI492
aI492
aI505
aI492
aI491
aI504
aI492
aI491
aI499
aI492
aI491
aI492
aI491
aI491
aI493
aI492
aI491
aI494
aI492
aI491
aI496
aI491
aI492
aI503
aI492
aI491
aI505
aI492
aI492
aI504
aI492
aI491
aI499
aI492
aI491
aI496
aI492
aI491
aI491
aI493
aI492
aI492
aI494
aI491
aI491
aI496
aI492
aI503
asg8
(lp22
I415
aI416
aI416
aI415
aI415
aI416
aI415
aI411
aI415
aI415
aI407
aI416
aI415
aI407
aI417
aI415
aI409
aI417
aI412
aI417
aI415
aI415
aI417
aI415
aI414
aI415
aI415
aI415
aI411
aI417
aI416
aI408
aI416
aI415
aI409
aI417
aI415
aI412
aI417
aI416
aI415
aI417
aI416
aI415
aI415
aI415
aI415
aI414
aI416
aI415
aI411
aI416
aI415
aI406
aI416
aI415
aI408
aI417
aI417
aI409
aI417
aI415
aI412
aI416
aI416
aI415
aI417
aI416
aI415
aI415
aI416
aI415
aI414
aI415
aI415
aI410
aI415
aI415
aI407
aI416
aI415
aI407
aI416
aI415
aI410
aI417
aI415
aI411
aI416
aI417
aI415
aI415
aI415
aI415
aI416
aI415
aI413
aI415
aI415
aI410
aI416
aI415
aI408
aI416
aI415
aI408
aI416
aI415
aI409
aI416
aI416
aI412
aI417
aI417
aI415
aI416
aI415
aI415
aI415
aI415
aI415
aI414
aI416
aI415
aI407
aI416
aI415
aI408
aI407
aI417
aI412
aI416
aI416
aI416
aI415
aI416
aI415
aI414
aI416
aI415
aI411
aI416
aI416
aI408
aI416
aI415
aI408
aI415
aI415
aI410
aI416
aI415
aI416
aI415
aI415
aI415
aI415
aI416
aI415
aI412
aI415
aI416
aI411
aI417
aI415
aI408
aI417
aI415
aI409
aI416
aI416
aI411
aI416
aI417
aI415
aI416
aI416
aI414
aI415
aI415
aI415
aI414
aI416
aI415
aI411
aI415
aI415
aI410
aI415
aI416
aI407
aI416
aI416
aI409
aI416
aI415
aI411
aI415
aI415
aI416
aI415
aI415
aI414
aI416
aI415
aI410
aI416
aI416
aI407
aI417
aI415
aI409
aI416
aI415
aI417
aI416
aI416
aI415
aI416
aI416
aI415
aI415
aI415
aI413
aI416
aI415
aI411
aI415
aI406
aI416
aI417
aI408
aI417
aI417
aI410
aI417
aI415
aI412
aI416
aI415
aI415
aI415
aI416
aI415
aI415
aI416
aI413
aI417
aI415
aI410
aI415
aI416
aI407
aI417
aI415
aI408
aI416
aI409
aI417
aI415
aI412
aI417
aI415
aI415
aI415
aI415
aI415
aI415
aI416
aI416
aI414
aI415
aI411
aI416
aI415
aI407
aI416
aI415
aI408
aI416
aI415
aI410
aI417
aI416
aI412
aI416
aI416
aI415
aI416
aI416
aI415
aI415
aI416
aI415
aI414
aI415
aI416
aI407
aI416
aI415
aI409
aI417
aI416
aI413
aI416
aI417
aI415
aI415
aI416
aI415
aI414
aI416
aI415
aI411
aI415
aI415
aI406
aI417
aI415
aI407
aI415
aI415
aI408
aI416
aI415
aI410
aI417
aI416
aI414
aI417
aI416
aI415
aI417
aI417
aI415
aI414
aI416
aI415
aI412
aI416
aI416
aI407
aI415
aI415
aI408
aI417
aI416
aI410
aI417
aI416
aI411
aI416
aI415
aI415
aI415
aI415
aI415
aI415
aI415
aI415
aI414
aI416
aI415
aI411
aI415
aI415
aI407
aI416
aI415
aI408
aI416
aI416
aI410
aI416
aI415
aI412
aI416
aI415
aI415
aI416
aI415
aI415
aI416
aI415
aI415
aI414
aI416
aI415
aI412
aI416
aI415
aI407
aI416
aI416
aI408
aI416
aI415
aI411
aI416
aI416
aI415
aI416
aI416
aI415
aI412
aI416
aI416
aI410
aI415
aI416
aI407
aI417
aI415
aI408
aI416
aI416
aI410
aI416
aI415
aI411
aI410
aI416
aI416
aI416
aI415
aI415
aI415
aI415
aI412
aI416
aI415
aI411
aI416
aI415
aI407
aI416
aI415
aI408
aI416
aI415
aI417
aI416
aI416
aI416
aI393
aI452
aI376
aI449
aI404
aI419
aI404
aI443
aI396
aI399
aI420
aI399
aI428
aI408
aI440
aI414
aI420
aI400
aI447
aI408
aI407
aI448
aI399
aI416
aI392
aI435
aI381
aI426
aI419
aI408
aI416
aI414
aI400
aI409
aI406
aI408
aI407
aI404
aI428
aI390
aI452
aI400
aI420
aI402
aI433
aI395
aI446
aI391
aI416
aI406
aI411
aI410
aI413
aI411
aI426
aI409
aI424
aI405
aI419
aI422
aI415
aI403
aI408
aI424
aI403
aI427
aI414
aI428
aI395
aI444
aI409
aI423
aI415
aI440
aI409
aI417
aI417
aI390
aI438
aI386
aI415
aI405
aI425
aI407
aI430
aI428
aI392
aI433
aI386
aI408
aI403
aI430
aI432
aI412
aI408
aI420
aI390
aI406
aI422
aI435
aI407
aI419
aI427
aI419
aI392
aI411
aI416
aI416
aI407
aI417
aI415
aI407
aI417
aI416
aI409
aI418
aI415
aI412
aI417
aI416
aI415
aI417
aI415
aI415
aI415
aI416
aI416
aI414
aI417
aI415
aI406
aI417
aI415
aI408
aI416
aI416
aI414
aI417
aI416
aI416
aI416
aI416
aI415
aI415
aI415
aI416
aI412
aI416
aI415
aI405
aI417
aI415
aI407
aI416
aI416
aI408
aI417
aI415
aI410
aI417
aI416
aI415
aI416
aI416
aI415
aI417
aI415
aI416
aI414
aI418
aI412
aI416
aI416
aI406
aI416
aI416
aI406
aI417
aI415
aI408
aI417
aI415
aI411
aI416
aI416
aI415
aI417
aI415
aI415
aI416
aI416
aI415
aI414
aI416
aI416
aI412
aI416
aI416
aI406
aI417
aI416
aI406
aI417
aI415
aI408
aI406
aI416
aI408
aI416
aI415
aI409
aI417
aI416
aI411
aI416
aI415
aI415
aI416
aI416
aI416
aI415
aI417
aI415
aI414
aI416
aI415
aI411
aI416
aI415
aI406
aI416
aI416
aI407
aI416
aI415
aI409
aI418
aI415
aI411
aI417
aI416
aI415
aI415
aI416
aI415
aI415
aI416
aI416
aI413
aI416
aI416
aI411
aI417
aI415
aI407
aI417
aI415
aI408
aI417
aI415
aI410
aI417
aI415
aI411
aI417
aI416
aI415
aI417
aI417
aI415
aI415
aI415
aI416
aI414
aI416
aI415
aI411
aI417
aI406
aI417
aI417
aI407
aI417
aI415
aI408
aI417
aI416
aI411
aI417
aI416
aI414
aI415
aI415
aI410
aI417
aI416
aI407
aI417
aI417
aI408
aI416
aI416
aI411
aI416
aI416
aI415
aI416
aI416
aI415
aI415
aI415
aI414
aI416
aI415
aI411
aI416
aI416
aI409
aI417
aI415
aI406
aI417
aI417
aI408
aI417
aI416
aI411
aI417
aI416
aI415
aI416
aI416
aI416
aI416
aI417
aI415
aI414
aI417
aI415
aI412
aI417
aI416
aI410
aI416
aI415
aI407
aI415
aI416
aI409
aI416
aI416
aI411
aI417
aI417
aI416
aI417
aI417
aI416
aI415
aI416
aI417
aI415
aI416
aI416
aI411
aI416
aI416
aI409
aI416
aI416
aI416
aI416
aI417
aI415
aI412
aI417
aI416
aI415
aI417
aI415
aI415
aI416
aI416
aI415
aI414
aI416
aI415
aI406
aI416
aI416
aI408
aI418
aI416
aI412
aI418
aI416
aI415
aI416
aI416
aI415
aI415
aI416
aI415
aI413
aI416
aI416
aI411
aI416
aI415
aI405
aI417
aI415
aI407
aI417
aI416
aI409
aI417
aI415
aI411
aI416
aI416
aI417
aI416
aI416
aI416
aI416
aI416
aI414
aI416
aI416
aI411
aI416
aI415
aI405
aI417
aI416
aI408
aI416
aI415
aI410
aI417
aI416
aI411
aI418
aI416
aI416
aI416
aI416
aI416
aI415
aI416
aI415
aI414
aI416
aI416
aI411
aI415
aI407
asg10
(lp23
I165317762
aI165319547
aI165321332
aI165323117
aI165324902
aI165326687
aI165328472
aI165330257
aI165332042
aI165333827
aI165335612
aI165337397
aI165339182
aI165340967
aI165342752
aI165344537
aI165346322
aI165348107
aI165351677
aI165353462
aI165355247
aI165357032
aI165358707
aI165360397
aI165362087
aI165363776
aI165365466
aI165367155
aI165368845
aI165370534
aI165372224
aI165373913
aI165375713
aI165377497
aI165379282
aI165381066
aI165382851
aI165384636
aI165386421
aI165388206
aI165389991
aI165391776
aI165393561
aI165395346
aI165397131
aI165398916
aI165400701
aI165402486
aI165404271
aI165406056
aI165407841
aI165409626
aI165411411
aI165413195
aI165414980
aI165416764
aI165418548
aI165420333
aI165422117
aI165423902
aI165425687
aI165427472
aI165429257
aI165431042
aI165432827
aI165434612
aI165436397
aI165438182
aI165439967
aI165441752
aI165443537
aI165445322
aI165447107
aI165448892
aI165450677
aI165452462
aI165454247
aI165456032
aI165457817
aI165459602
aI165461387
aI165463172
aI165464957
aI165466742
aI165468527
aI165470312
aI165472097
aI165473882
aI165475667
aI165477452
aI165479237
aI165482807
aI165484592
aI165486377
aI165488162
aI165489947
aI165491732
aI165493517
aI165495302
aI165497087
aI165498872
aI165500657
aI165502442
aI165504227
aI165506012
aI165507797
aI165509582
aI165511367
aI165513152
aI165514937
aI165516722
aI165518507
aI165520292
aI165522077
aI165523862
aI165525647
aI165527432
aI165529217
aI165531002
aI165532787
aI165534572
aI165536247
aI165537937
aI165539626
aI165541316
aI165543005
aI165544695
aI165546384
aI165548074
aI165549763
aI165551453
aI165553253
aI165555037
aI165556821
aI165558606
aI165560390
aI165562175
aI165563960
aI167018217
aI167020002
aI167021787
aI167023572
aI167025357
aI167027142
aI167028927
aI167030712
aI167032497
aI167034282
aI167036067
aI167037852
aI167039637
aI167041422
aI167044992
aI167048562
aI167050347
aI167052132
aI167055702
aI167057487
aI167059272
aI167061057
aI167062842
aI167064627
aI167066412
aI167068197
aI167069982
aI167071767
aI167073552
aI167075337
aI167077122
aI167078907
aI167080692
aI167082476
aI167084261
aI167086045
aI167087829
aI167089614
aI167091398
aI167093183
aI167094968
aI167096753
aI167098538
aI167100323
aI167102108
aI167103893
aI167105678
aI167107463
aI167109248
aI167111033
aI167112818
aI167114603
aI167116388
aI167118173
aI167119958
aI167121743
aI167123528
aI167125313
aI167127098
aI167130668
aI167132453
aI167134128
aI167135818
aI167137507
aI167139197
aI167140886
aI167142576
aI167144265
aI167145955
aI167147644
aI167149334
aI167151134
aI167152918
aI167154702
aI167156487
aI167158271
aI167161841
aI167163626
aI167165411
aI167167196
aI167168981
aI167170766
aI167172551
aI167174336
aI167176121
aI167177906
aI167179691
aI167181476
aI167183264
aI167186832
aI167188617
aI167190401
aI167192186
aI167193971
aI167195756
aI167197541
aI167199326
aI167201111
aI167202896
aI167204681
aI167206466
aI167208251
aI167210036
aI167211821
aI167213606
aI167215391
aI167217176
aI167218961
aI167222531
aI167224316
aI167226101
aI167227886
aI167229671
aI167231456
aI167233241
aI167235026
aI167236811
aI167238596
aI167242166
aI167243951
aI167245736
aI167247521
aI167249306
aI167251091
aI167252876
aI167254661
aI167256446
aI167258231
aI167260016
aI167261801
aI167263586
aI167265371
aI167267156
aI167268941
aI167272511
aI167274296
aI167276081
aI167277866
aI167279651
aI167281436
aI167283221
aI167285006
aI167286791
aI167288576
aI167290361
aI167292146
aI167293931
aI167295716
aI167297501
aI167299286
aI167301071
aI167302856
aI167304641
aI167306425
aI167308210
aI167309994
aI167311668
aI167313358
aI167315047
aI167316737
aI167318426
aI167320116
aI167321806
aI167323496
aI167325185
aI167326875
aI167328675
aI167330460
aI167332245
aI167334030
aI167335815
aI167337600
aI167339385
aI167341170
aI167342955
aI167344740
aI167346525
aI167348310
aI167350095
aI167351880
aI167353665
aI167355450
aI167357235
aI167359020
aI167360805
aI167362590
aI167364375
aI167366160
aI167367945
aI167369730
aI167371515
aI167373300
aI167375085
aI167376870
aI167378655
aI167380440
aI167382225
aI167384010
aI167385795
aI167387580
aI167389365
aI167391150
aI167392935
aI167394720
aI167396505
aI167398290
aI167400075
aI167401860
aI167403645
aI167405430
aI167407215
aI167409000
aI167410785
aI167412570
aI167414355
aI167416139
aI167417924
aI167419708
aI167421492
aI167423277
aI167425061
aI167426846
aI167428631
aI167430416
aI167432201
aI167433986
aI167435771
aI167437556
aI167439341
aI167441126
aI167442911
aI167444695
aI167446480
aI167448264
aI167450048
aI167451833
aI167453617
aI167455402
aI167457187
aI167458972
aI167460757
aI167462542
aI167464327
aI167466112
aI167467897
aI167469682
aI167471467
aI167473252
aI167475037
aI167476822
aI167478607
aI167480392
aI167482177
aI167483962
aI167485747
aI167487532
aI167489207
aI167490897
aI167492586
aI167494276
aI167495965
aI167497655
aI167499344
aI167501034
aI167502723
aI167504413
aI167506213
aI167507997
aI167509781
aI167511566
aI167513350
aI167515135
aI167516920
aI167518705
aI167520490
aI167522275
aI167524060
aI167525845
aI167527630
aI167529415
aI167531200
aI167532985
aI167534770
aI167536555
aI167538340
aI167541910
aI167543695
aI167545480
aI167547265
aI167549050
aI167550835
aI167552620
aI167554405
aI167556190
aI167557975
aI167559760
aI167561545
aI167563330
aI167565115
aI167566900
aI167568685
aI167570470
aI167574040
aI167575825
aI167579394
aI167581178
aI167582962
aI167584747
aI167586531
aI167588316
aI167590101
aI167591886
aI167593671
aI167595456
aI167597241
aI167599026
aI167600811
aI167602596
aI167604381
aI167606166
aI167607951
aI167609736
aI167611521
aI167613306
aI167615091
aI167616876
aI167618661
aI167620446
aI167622231
aI167624016
aI167625801
aI167627586
aI167629371
aI167631156
aI167632941
aI167634726
aI167636511
aI167638296
aI167640081
aI167645436
aI167647221
aI167649006
aI167650791
aI167652576
aI167654361
aI167656146
aI167657931
aI167659716
aI167661501
aI167663286
aI167665071
aI167666746
aI167668436
aI167670126
aI167671815
aI167673505
aI167675194
aI167676884
aI167678573
aI167680263
aI167681952
aI167683752
aI167685536
aI167687321
aI167689105
aI167690890
aI167692675
aI167694459
aI167696244
aI167698028
aI167699812
aI167701597
aI167703381
aI167705166
aI167706951
aI167708736
aI167710521
aI167712306
aI167714091
aI167715876
aI167717661
aI167719446
aI167721231
aI167723016
aI167724801
aI167726586
aI167728371
aI167730156
aI167731941
aI167733726
aI167735511
aI167737296
aI167739081
aI167740866
aI167742651
aI167744436
aI167746221
aI167748006
aI167749791
aI167751576
aI167753361
aI167755146
aI167756931
aI167758716
aI167760501
aI167762286
aI167764071
aI167765856
aI167767641
aI167769426
aI167771211
aI185026823
aI185028608
aI185030393
aI185032178
aI185033963
aI185035748
aI185037533
aI185039318
aI185041103
aI185042888
aI185044673
aI185046458
aI185048243
aI185050028
aI185051813
aI185053598
aI185055383
aI185057168
aI185058953
aI185060738
aI185062523
aI185064308
aI185065983
aI185067673
aI185069362
aI185071052
aI185072741
aI185074431
aI185076120
aI185077810
aI185079499
aI185081189
aI185082989
aI185084773
aI185086557
aI185088342
aI185090126
aI185091911
aI185093696
aI185095481
aI185097266
aI185099051
aI185100836
aI185102621
aI185104406
aI185106191
aI185107976
aI185109761
aI185111546
aI185113331
aI185115116
aI185116901
aI185118686
aI185120471
aI185122256
aI185124041
aI185125826
aI185127611
aI185129396
aI185131181
aI185132966
aI185134751
aI185136536
aI185138321
aI185140109
aI185143677
aI185145462
aI185147246
aI185149031
aI185150816
aI185152601
aI185154386
aI185156171
aI185157956
aI185159741
aI185161526
aI185163311
aI185165096
aI185166881
aI185168666
aI185170451
aI185172235
aI185174020
aI185175804
aI185177588
aI185179373
aI185181157
aI185182942
aI185184727
aI185186512
aI185188297
aI185190082
aI185191867
aI185193652
aI185195437
aI185197222
aI185199007
aI185200792
aI185202577
aI185204362
aI185271236
aI185274806
aI185276591
aI185278376
aI185280161
aI185281946
aI185283731
aI185285516
aI185287301
aI185289086
aI185290871
aI185292656
aI185294441
aI185296226
aI185298011
aI185299796
aI185301581
aI185303366
aI185305151
aI185306936
aI185308721
aI185310506
aI185312291
aI185314076
aI185315861
aI185317646
aI185319431
aI185321216
aI185323001
aI185324786
aI185326571
aI185328356
aI185330141
aI185331926
aI185333711
aI185335496
aI185337281
aI185339066
aI185340851
aI185342636
aI185344421
aI185346206
aI185347991
aI185349776
aI185351561
aI185353346
aI185355131
aI185356916
aI185358701
aI185360486
aI185362271
aI185364056
aI185365841
aI185367626
aI185369411
aI185371196
aI185372981
aI185374766
aI185376551
aI185378336
aI185380121
aI185381906
aI185383691
aI185385476
aI185387261
aI185389046
aI185390831
aI185392615
aI185394400
aI185396184
aI185397968
aI185399753
aI185401540
aI185405108
aI185406893
aI185408677
aI185410462
aI185412247
aI185414032
aI185415817
aI185417602
aI185419387
aI185421062
aI185422752
aI185426131
aI185427820
aI185429510
aI185431199
aI185432889
aI185434578
aI185436268
aI185438068
aI185439852
aI185441636
aI185443421
aI185445205
aI185446990
aI185448775
aI185450559
aI185452344
aI185454128
aI185455912
aI185457697
aI185459481
aI185463051
aI185464836
aI185466621
aI185468406
aI185470191
aI185471976
aI185473761
aI185475546
aI185477331
aI185479116
aI185480901
aI185482686
aI185484471
aI185486256
aI185488041
aI185489826
aI185491611
aI185493396
aI185495181
aI185496966
aI185498751
aI185500536
aI185502321
aI185504106
aI185505891
aI185507676
aI185509461
aI185511246
aI185513031
aI185514816
aI185516601
aI185518386
aI185520171
aI185521956
aI185523741
aI185525526
aI185527311
aI185529096
aI185530881
aI185532666
aI185534451
aI185536236
aI185538021
aI185539806
aI185541591
aI185543376
aI185545161
aI185546946
aI185548731
aI185550516
aI185552301
aI185554086
aI185555871
aI185557656
aI185559441
aI185561226
aI185563011
aI185564796
aI185566581
aI185568366
aI185570151
aI185573721
aI185575506
aI185579076
aI185580861
aI185582646
aI185584431
aI185586216
aI185588001
aI185589786
aI185591571
aI185593356
aI185595141
aI185596926
aI185598604
aI185600294
aI185601983
aI185603673
aI185605362
aI185607052
aI185608741
aI185610431
aI185612121
aI185613811
aI185615610
aI185617395
aI185619179
aI185620964
aI185622749
aI185624534
aI185626319
aI185628104
aI185629889
aI185631674
aI185633459
aI185635244
aI185637029
aI185638814
aI185640599
aI185642384
aI185644169
aI185645954
aI185647739
aI185649524
aI185651309
aI185653094
aI185654879
aI185656664
aI185658449
aI185660234
aI185662019
aI185663804
aI185667374
aI185669159
aI185670944
aI185672729
aI185674514
aI185676299
aI185678084
aI185679869
aI185681654
aI185683439
aI185685224
aI185687009
aI185688794
aI185690579
aI185692364
aI185694149
aI185695934
aI185697719
aI185699504
aI185701289
aI185703074
aI185704859
aI185706644
aI185708429
aI185710214
aI185711999
aI185713784
aI185715569
aI185717354
aI185719139
aI185720924
aI185722709
aI185724494
aI185726279
aI185728064
aI185729849
aI185733419
asg12
(lp24
I457
aI462
aI457
aI456
aI462
aI459
aI461
aI456
aI458
aI452
aI459
aI462
aI460
aI456
aI460
aI457
aI457
aI459
aI463
aI457
aI463
aI461
aI458
aI457
aI458
aI461
aI455
aI459
aI459
aI457
aI459
aI460
aI461
aI457
aI460
aI461
aI460
aI459
aI457
aI460
aI461
aI459
aI457
aI459
aI459
aI458
aI458
aI462
aI458
aI458
aI461
aI457
aI460
aI459
aI457
aI460
aI460
aI460
aI461
aI462
aI457
aI460
aI460
aI459
aI459
aI463
aI462
aI462
aI459
aI460
aI460
aI458
aI459
aI461
aI459
aI459
aI457
aI457
aI459
aI459
aI459
aI457
aI460
aI459
aI461
aI457
aI458
aI462
aI460
aI461
aI457
aI456
aI458
aI461
aI463
aI460
aI460
aI460
aI460
aI460
aI460
aI457
aI459
aI460
aI457
aI460
aI457
aI460
aI459
aI460
aI462
aI459
aI461
aI459
aI457
aI460
aI460
aI457
aI462
aI461
aI457
aI462
aI463
aI457
aI460
aI458
aI459
aI459
aI457
aI460
aI457
aI460
aI461
aI460
aI460
aI459
aI463
aI460
aI457
aI458
aI459
aI462
aI459
aI459
aI457
aI459
aI461
aI460
aI461
aI461
aI459
aI457
aI460
aI457
aI457
aI456
aI459
aI460
aI459
aI458
aI460
aI458
aI462
aI457
aI459
aI463
aI464
aI456
aI460
aI461
aI458
aI460
aI459
aI460
aI462
aI455
aI458
aI458
aI460
aI461
aI458
aI463
aI457
aI461
aI459
aI463
aI459
aI460
aI455
aI455
aI457
aI455
aI459
aI457
aI456
aI459
aI461
aI459
aI461
aI460
aI461
aI463
aI460
aI456
aI456
aI457
aI460
aI460
aI457
aI458
aI459
aI458
aI459
aI460
aI459
aI459
aI456
aI460
aI463
aI457
aI461
aI461
aI459
aI459
aI461
aI456
aI460
aI462
aI456
aI459
aI458
aI459
aI461
aI463
aI459
aI459
aI458
aI455
aI455
aI460
aI457
aI462
aI457
aI458
aI456
aI462
aI457
aI457
aI458
aI459
aI459
aI456
aI460
aI460
aI457
aI456
aI459
aI460
aI460
aI459
aI460
aI460
aI460
aI459
aI458
aI460
aI457
aI459
aI459
aI461
aI456
aI457
aI462
aI457
aI455
aI460
aI457
aI460
aI461
aI455
aI460
aI455
aI457
aI459
aI455
aI459
aI458
aI462
aI456
aI459
aI455
aI456
aI460
aI458
aI460
aI458
aI460
aI459
aI460
aI458
aI463
aI460
aI463
aI463
aI459
aI458
aI457
aI460
aI460
aI457
aI459
aI460
aI458
aI462
aI457
aI459
aI457
aI457
aI460
aI458
aI458
aI459
aI460
aI457
aI460
aI459
aI457
aI462
aI462
aI460
aI461
aI459
aI460
aI457
aI461
aI461
aI457
aI459
aI458
aI456
aI458
aI456
aI457
aI462
aI457
aI460
aI460
aI458
aI455
aI460
aI456
aI460
aI459
aI461
aI460
aI460
aI462
aI459
aI457
aI457
aI460
aI458
aI461
aI459
aI461
aI460
aI457
aI457
aI462
aI458
aI457
aI456
aI458
aI455
aI460
aI455
aI459
aI458
aI457
aI461
aI459
aI460
aI460
aI459
aI457
aI457
aI462
aI455
aI459
aI458
aI457
aI457
aI457
aI459
aI460
aI459
aI462
aI461
aI459
aI459
aI456
aI465
aI458
aI461
aI455
aI460
aI463
aI457
aI462
aI457
aI457
aI461
aI460
aI458
aI457
aI460
aI460
aI462
aI459
aI459
aI459
aI462
aI461
aI460
aI458
aI459
aI458
aI458
aI460
aI459
aI453
aI460
aI460
aI459
aI455
aI462
aI459
aI459
aI459
aI459
aI457
aI457
aI460
aI459
aI294
aI484
aI397
aI492
aI396
aI451
aI314
aI623
aI558
aI417
aI364
aI518
aI525
aI482
aI540
aI406
aI521
aI423
aI543
aI509
aI424
aI541
aI415
aI532
aI484
aI544
aI425
aI452
aI475
aI521
aI496
aI462
aI499
aI500
aI498
aI483
aI549
aI456
aI542
aI439
aI560
aI460
aI535
aI472
aI530
aI459
aI568
aI463
aI520
aI508
aI519
aI499
aI523
aI476
aI514
aI524
aI565
aI478
aI477
aI539
aI529
aI540
aI493
aI536
aI474
aI563
aI502
aI591
aI478
aI541
aI516
aI575
aI469
aI559
aI560
aI520
aI542
aI472
aI630
aI506
aI575
aI491
aI555
aI543
aI571
aI600
aI415
aI600
aI560
aI622
aI417
aI513
aI751
aI508
aI521
aI574
aI583
aI553
aI615
aI595
aI460
aI578
aI588
aI634
aI469
aI460
aI457
aI460
aI460
aI460
aI460
aI460
aI458
aI459
aI456
aI456
aI457
aI459
aI460
aI461
aI459
aI462
aI461
aI460
aI460
aI456
aI459
aI457
aI460
aI457
aI461
aI457
aI461
aI461
aI461
aI459
aI461
aI463
aI461
aI460
aI460
aI465
aI457
aI457
aI457
aI461
aI460
aI456
aI458
aI459
aI460
aI456
aI459
aI460
aI459
aI457
aI457
aI458
aI458
aI459
aI457
aI458
aI459
aI461
aI460
aI462
aI456
aI463
aI460
aI457
aI455
aI459
aI455
aI455
aI456
aI455
aI458
aI458
aI460
aI457
aI460
aI458
aI456
aI457
aI456
aI459
aI459
aI460
aI457
aI461
aI458
aI460
aI457
aI459
aI461
aI459
aI461
aI462
aI459
aI461
aI460
aI460
aI460
aI457
aI459
aI460
aI458
aI459
aI457
aI461
aI457
aI460
aI459
aI460
aI460
aI458
aI458
aI457
aI457
aI460
aI459
aI459
aI456
aI461
aI458
aI459
aI458
aI455
aI460
aI462
aI460
aI457
aI455
aI457
aI456
aI456
aI456
aI458
aI461
aI456
aI460
aI460
aI458
aI457
aI455
aI455
aI455
aI459
aI459
aI460
aI460
aI455
aI460
aI456
aI460
aI457
aI458
aI457
aI456
aI458
aI461
aI459
aI459
aI457
aI459
aI456
aI460
aI456
aI457
aI462
aI456
aI459
aI459
aI458
aI458
aI458
aI456
aI462
aI457
aI460
aI459
aI459
aI459
aI460
aI460
aI457
aI460
aI458
aI460
aI456
aI462
aI458
aI456
aI459
aI462
aI456
aI459
aI460
aI460
aI457
aI460
aI455
aI459
aI456
aI459
aI459
aI459
aI458
aI457
aI457
aI459
aI456
aI459
aI459
aI460
aI457
aI456
aI454
aI457
aI460
aI459
aI460
aI456
aI455
aI460
aI460
aI459
aI460
aI455
aI462
aI457
aI460
aI457
aI462
aI461
aI462
aI457
aI459
aI459
aI462
aI462
aI457
aI455
aI460
aI458
aI460
aI460
aI457
aI459
aI459
aI458
aI457
aI459
aI460
aI459
aI457
aI460
aI457
aI457
aI459
aI458
aI460
aI459
aI460
aI458
aI460
aI457
aI459
aI459
aI457
aI459
aI459
aI455
aI460
aI456
aI455
aI458
aI456
aI456
aI460
aI459
aI455
aI459
aI457
aI460
aI455
aI457
aI460
aI460
aI463
aI457
aI458
aI460
aI459
aI459
aI460
aI460
aI458
aI462
aI458
aI460
aI457
aI460
aI458
aI457
aI459
aI456
aI455
aI459
aI457
aI458
aI456
aI457
aI460
aI459
aI459
aI457
aI456
aI461
aI456
aI462
aI462
aI457
aI459
aI456
aI457
aI459
aI455
aI459
aI460
aI456
aI455
aI455
aI458
aI458
aI459
aI460
aI460
aI457
aI460
aI460
aI461
aI453
aI458
aI460
aI460
aI459
aI457
aI460
aI456
aI459
aI460
aI457
aI458
aI458
aI458
aI462
aI459
asg14
(lp25
I550
aI544
aI545
aI543
aI548
aI547
aI546
aI543
aI549
aI550
aI548
aI548
aI548
aI545
aI549
aI543
aI548
aI547
aI546
aI547
aI547
aI547
aI548
aI545
aI549
aI548
aI547
aI546
aI547
aI547
aI545
aI545
aI544
aI546
aI542
aI546
aI543
aI545
aI546
aI551
aI547
aI548
aI546
aI545
aI543
aI548
aI547
aI547
aI545
aI545
aI547
aI547
aI546
aI544
aI547
aI546
aI544
aI547
aI549
aI547
aI545
aI547
aI545
aI546
aI548
aI547
aI548
aI547
aI546
aI542
aI547
aI544
aI545
aI547
aI548
aI543
aI548
aI543
aI543
aI547
aI547
aI548
aI548
aI547
aI545
aI545
aI548
aI547
aI545
aI547
aI545
aI544
aI544
aI547
aI547
aI545
aI544
aI548
aI547
aI543
aI543
aI545
aI545
aI548
aI547
aI547
aI546
aI549
aI543
aI545
aI547
aI547
aI545
aI544
aI546
aI545
aI547
aI546
aI548
aI546
aI544
aI547
aI548
aI550
aI544
aI547
aI545
aI544
aI547
aI547
aI548
aI548
aI546
aI545
aI548
aI544
aI546
aI550
aI547
aI548
aI548
aI547
aI547
aI548
aI547
aI551
aI547
aI547
aI546
aI550
aI547
aI547
aI548
aI548
aI546
aI544
aI547
aI545
aI543
aI543
aI546
aI544
aI547
aI547
aI549
aI547
aI545
aI544
aI551
aI547
aI548
aI548
aI547
aI548
aI550
aI547
aI547
aI549
aI543
aI547
aI547
aI544
aI546
aI545
aI545
aI543
aI545
aI548
aI544
aI547
aI546
aI544
aI543
aI547
aI546
aI548
aI547
aI546
aI545
aI547
aI547
aI546
aI544
aI547
aI547
aI547
aI547
aI546
aI548
aI549
aI549
aI547
aI549
aI546
aI545
aI545
aI548
aI544
aI549
aI546
aI546
aI547
aI547
aI547
aI549
aI549
aI547
aI545
aI551
aI548
aI546
aI545
aI544
aI547
aI544
aI545
aI547
aI548
aI546
aI548
aI545
aI544
aI545
aI547
aI547
aI544
aI549
aI549
aI551
aI545
aI543
aI547
aI548
aI545
aI547
aI549
aI544
aI547
aI543
aI548
aI546
aI547
aI550
aI545
aI543
aI546
aI547
aI545
aI545
aI545
aI545
aI545
aI547
aI547
aI547
aI549
aI550
aI549
aI544
aI544
aI545
aI545
aI548
aI549
aI547
aI550
aI546
aI546
aI547
aI550
aI548
aI547
aI547
aI550
aI548
aI546
aI545
aI545
aI547
aI545
aI547
aI546
aI547
aI547
aI547
aI544
aI548
aI546
aI547
aI547
aI547
aI549
aI547
aI548
aI547
aI546
aI547
aI548
aI546
aI546
aI545
aI550
aI546
aI548
aI549
aI550
aI550
aI548
aI546
aI551
aI547
aI547
aI548
aI545
aI548
aI547
aI548
aI547
aI547
aI547
aI545
aI543
aI549
aI548
aI551
aI547
aI549
aI546
aI547
aI547
aI547
aI547
aI547
aI549
aI546
aI547
aI549
aI547
aI545
aI545
aI545
aI547
aI546
aI545
aI547
aI547
aI545
aI547
aI550
aI549
aI550
aI543
aI544
aI547
aI548
aI543
aI543
aI546
aI548
aI546
aI547
aI548
aI547
aI547
aI546
aI544
aI547
aI545
aI545
aI548
aI548
aI545
aI547
aI546
aI545
aI546
aI547
aI549
aI544
aI547
aI544
aI545
aI547
aI545
aI548
aI546
aI547
aI545
aI543
aI547
aI548
aI547
aI546
aI548
aI549
aI545
aI544
aI544
aI545
aI548
aI548
aI547
aI546
aI550
aI545
aI547
aI548
aI548
aI543
aI543
aI545
aI545
aI545
aI547
aI547
aI547
aI543
aI547
aI545
aI546
aI547
aI547
aI545
aI552
aI527
aI583
aI484
aI585
aI534
aI523
aI534
aI583
aI482
aI540
aI391
aI558
aI577
aI552
aI617
aI591
aI515
aI582
aI569
aI565
aI593
aI559
aI531
aI510
aI527
aI548
aI532
aI561
aI537
aI544
aI535
aI530
aI531
aI541
aI564
aI557
aI548
aI552
aI547
aI486
aI569
aI496
aI579
aI488
aI577
aI536
aI574
aI531
aI544
aI527
aI519
aI560
aI542
aI529
aI543
aI531
aI549
aI535
aI533
aI523
aI557
aI536
aI510
aI552
aI524
aI552
aI560
aI577
aI529
aI606
aI572
aI556
aI593
aI531
aI516
aI534
aI519
aI534
aI536
aI508
aI549
aI551
aI544
aI537
aI536
aI553
aI520
aI540
aI511
aI521
aI559
aI539
aI674
aI573
aI639
aI601
aI608
aI572
aI544
aI576
aI536
aI515
aI556
aI542
aI502
aI549
aI547
aI550
aI547
aI547
aI548
aI547
aI546
aI547
aI548
aI546
aI546
aI546
aI546
aI545
aI548
aI547
aI547
aI548
aI547
aI548
aI546
aI543
aI545
aI547
aI548
aI548
aI547
aI547
aI543
aI545
aI544
aI546
aI546
aI547
aI547
aI551
aI551
aI546
aI547
aI547
aI548
aI544
aI543
aI545
aI545
aI547
aI549
aI547
aI548
aI543
aI547
aI544
aI546
aI548
aI548
aI546
aI546
aI548
aI549
aI548
aI550
aI547
aI547
aI546
aI545
aI545
aI545
aI547
aI547
aI548
aI547
aI546
aI548
aI550
aI549
aI550
aI545
aI546
aI550
aI548
aI545
aI543
aI547
aI548
aI547
aI550
aI546
aI549
aI547
aI548
aI551
aI550
aI548
aI548
aI548
aI545
aI546
aI547
aI547
aI543
aI546
aI547
aI551
aI547
aI547
aI545
aI543
aI550
aI546
aI543
aI543
aI547
aI545
aI546
aI547
aI545
aI549
aI543
aI551
aI547
aI547
aI550
aI545
aI546
aI545
aI545
aI548
aI547
aI545
aI547
aI550
aI548
aI544
aI548
aI544
aI550
aI547
aI543
aI544
aI547
aI546
aI546
aI548
aI549
aI548
aI545
aI546
aI546
aI547
aI547
aI548
aI547
aI546
aI548
aI547
aI544
aI548
aI546
aI546
aI546
aI547
aI547
aI544
aI544
aI547
aI543
aI547
aI547
aI550
aI547
aI547
aI548
aI550
aI549
aI549
aI545
aI550
aI546
aI548
aI546
aI550
aI545
aI547
aI548
aI547
aI543
aI545
aI545
aI547
aI546
aI549
aI546
aI545
aI545
aI545
aI546
aI549
aI547
aI545
aI549
aI548
aI545
aI545
aI547
aI547
aI550
aI548
aI547
aI546
aI547
aI545
aI545
aI547
aI550
aI549
aI550
aI545
aI548
aI547
aI545
aI546
aI546
aI545
aI550
aI550
aI545
aI549
aI548
aI547
aI547
aI544
aI546
aI546
aI545
aI547
aI547
aI547
aI547
aI545
aI547
aI548
aI550
aI548
aI546
aI547
aI545
aI546
aI545
aI546
aI549
aI543
aI548
aI551
aI548
aI547
aI547
aI548
aI547
aI547
aI550
aI548
aI547
aI547
aI548
aI547
aI549
aI545
aI548
aI548
aI545
aI546
aI547
aI548
aI548
aI545
aI547
aI544
aI547
aI548
aI547
aI545
aI546
aI549
aI546
aI547
aI547
aI547
aI548
aI548
aI545
aI546
aI544
aI546
aI550
aI545
aI548
aI548
aI543
aI548
aI547
aI544
aI545
aI549
aI547
aI547
aI547
aI546
aI548
aI547
aI547
aI544
aI545
aI547
aI547
aI545
aI544
aI547
aI547
aI547
aI548
aI544
aI546
aI546
aI548
aI547
aI550
aI547
aI547
aI551
aI548
aI547
aI550
aI547
aI545
aI551
aI547
aI545
aI549
aI547
aI550
aI548
aI546
aI544
aI550
aI543
aI547
aI547
aI548
aI549
aI546
aI550
aI548
asg16
(lp26
I775
aI777
aI774
aI776
aI773
aI776
aI771
aI776
aI772
aI774
aI776
aI773
aI771
aI777
aI776
aI775
aI773
aI774
aI774
aI777
aI775
aI775
aI774
aI775
aI774
aI775
aI775
aI777
aI774
aI775
aI776
aI771
aI777
aI771
aI773
aI774
aI776
aI774
aI774
aI772
aI773
aI772
aI777
aI775
aI774
aI774
aI777
aI775
aI773
aI774
aI775
aI775
aI775
aI774
aI776
aI776
aI775
aI775
aI775
aI772
aI775
aI772
aI775
aI777
aI775
aI773
aI776
aI775
aI777
aI772
aI775
aI775
aI772
aI775
aI774
aI776
aI775
aI771
aI775
aI777
aI775
aI773
aI772
aI777
aI776
aI775
aI774
aI776
aI773
aI776
aI771
aI773
aI780
aI774
aI773
aI774
aI775
aI775
aI775
aI779
aI775
aI773
aI777
aI774
aI775
aI773
aI775
aI773
aI775
aI774
aI774
aI777
aI776
aI774
aI773
aI773
aI775
aI772
aI775
aI775
aI777
aI771
aI775
aI775
aI774
aI775
aI776
aI773
aI774
aI774
aI775
aI775
aI775
aI774
aI774
aI777
aI773
aI777
aI775
aI777
aI772
aI771
aI774
aI774
aI772
aI774
aI771
aI774
aI774
aI774
aI777
aI774
aI775
aI774
aI777
aI776
aI776
aI774
aI777
aI775
aI775
aI775
aI768
aI771
aI775
aI773
aI772
aI779
aI775
aI775
aI777
aI777
aI774
aI772
aI774
aI774
aI775
aI776
aI775
aI775
aI774
aI775
aI777
aI774
aI774
aI775
aI775
aI771
aI776
aI775
aI774
aI776
aI777
aI776
aI771
aI776
aI774
aI774
aI772
aI773
aI772
aI775
aI775
aI775
aI771
aI776
aI774
aI775
aI775
aI776
aI772
aI777
aI775
aI777
aI775
aI776
aI773
aI774
aI775
aI774
aI774
aI775
aI775
aI776
aI775
aI774
aI774
aI774
aI776
aI773
aI777
aI775
aI772
aI772
aI774
aI775
aI774
aI775
aI772
aI774
aI774
aI776
aI774
aI772
aI775
aI773
aI772
aI774
aI774
aI774
aI775
aI774
aI777
aI775
aI775
aI774
aI775
aI776
aI773
aI775
aI772
aI774
aI774
aI771
aI775
aI775
aI775
aI777
aI775
aI777
aI775
aI776
aI774
aI779
aI775
aI776
aI772
aI776
aI777
aI771
aI776
aI776
aI774
aI775
aI775
aI775
aI775
aI774
aI772
aI775
aI774
aI775
aI773
aI775
aI774
aI775
aI775
aI775
aI777
aI774
aI776
aI779
aI774
aI775
aI775
aI774
aI775
aI775
aI773
aI777
aI772
aI774
aI775
aI771
aI777
aI777
aI772
aI774
aI774
aI775
aI774
aI775
aI776
aI776
aI774
aI775
aI776
aI771
aI776
aI775
aI774
aI774
aI777
aI775
aI775
aI775
aI774
aI776
aI776
aI775
aI776
aI771
aI775
aI777
aI775
aI774
aI775
aI775
aI774
aI775
aI774
aI774
aI776
aI774
aI774
aI775
aI775
aI775
aI774
aI777
aI773
aI776
aI775
aI774
aI777
aI774
aI775
aI773
aI775
aI775
aI775
aI772
aI769
aI770
aI773
aI775
aI771
aI774
aI775
aI775
aI770
aI773
aI774
aI774
aI777
aI774
aI775
aI774
aI775
aI775
aI780
aI771
aI775
aI777
aI775
aI771
aI772
aI775
aI772
aI775
aI776
aI775
aI774
aI777
aI777
aI772
aI777
aI776
aI779
aI775
aI774
aI775
aI776
aI772
aI775
aI773
aI774
aI773
aI775
aI775
aI775
aI779
aI776
aI775
aI775
aI772
aI775
aI775
aI776
aI774
aI774
aI773
aI775
aI775
aI776
aI777
aI777
aI771
aI774
aI772
aI774
aI774
aI776
aI774
aI1016
aI650
aI969
aI621
aI861
aI764
aI930
aI579
aI650
aI831
aI869
aI795
aI714
aI824
aI620
aI867
aI687
aI862
aI653
aI700
aI905
aI612
aI869
aI679
aI816
aI683
aI906
aI756
aI806
aI713
aI769
aI783
aI740
aI766
aI801
aI813
aI726
aI836
aI710
aI884
aI641
aI833
aI694
aI843
aI662
aI896
aI599
aI872
aI738
aI763
aI775
aI771
aI762
aI845
aI747
aI786
aI696
aI828
aI787
aI720
aI730
aI720
aI830
aI710
aI875
aI705
aI832
aI699
aI880
aI701
aI809
aI718
aI839
aI690
aI733
aI793
aI730
aI900
aI608
aI878
aI701
aI850
aI741
aI780
aI746
aI662
aI962
aI684
aI820
aI699
aI851
aI888
aI534
aI854
aI810
aI785
aI692
aI780
aI707
aI636
aI950
aI745
aI735
aI680
aI942
aI774
aI772
aI774
aI776
aI774
aI776
aI775
aI775
aI775
aI772
aI776
aI774
aI775
aI776
aI775
aI777
aI774
aI775
aI775
aI774
aI775
aI775
aI776
aI774
aI774
aI771
aI775
aI771
aI776
aI776
aI776
aI775
aI773
aI776
aI772
aI775
aI775
aI776
aI774
aI771
aI776
aI775
aI774
aI771
aI771
aI774
aI775
aI772
aI776
aI774
aI775
aI776
aI775
aI775
aI775
aI779
aI773
aI775
aI772
aI775
aI774
aI773
aI775
aI774
aI777
aI772
aI773
aI776
aI777
aI774
aI775
aI776
aI774
aI775
aI775
aI776
aI775
aI776
aI772
aI776
aI775
aI774
aI775
aI775
aI777
aI775
aI775
aI775
aI775
aI775
aI775
aI775
aI779
aI775
aI775
aI775
aI775
aI779
aI775
aI775
aI775
aI774
aI776
aI775
aI772
aI775
aI774
aI776
aI774
aI775
aI777
aI774
aI772
aI774
aI776
aI773
aI776
aI775
aI774
aI772
aI773
aI774
aI775
aI774
aI776
aI775
aI775
aI775
aI774
aI771
aI771
aI772
aI775
aI772
aI773
aI777
aI775
aI776
aI777
aI776
aI775
aI775
aI774
aI775
aI774
aI776
aI776
aI774
aI775
aI775
aI774
aI776
aI774
aI776
aI774
aI779
aI775
aI773
aI779
aI776
aI775
aI777
aI775
aI774
aI775
aI775
aI775
aI774
aI775
aI774
aI776
aI775
aI775
aI775
aI774
aI775
aI775
aI779
aI775
aI775
aI777
aI774
aI775
aI773
aI775
aI774
aI776
aI777
aI775
aI777
aI772
aI777
aI775
aI776
aI775
aI775
aI773
aI777
aI773
aI773
aI772
aI772
aI774
aI775
aI775
aI775
aI774
aI774
aI772
aI771
aI774
aI775
aI775
aI774
aI774
aI775
aI772
aI775
aI772
aI775
aI774
aI776
aI775
aI775
aI774
aI775
aI777
aI774
aI774
aI774
aI771
aI773
aI774
aI774
aI773
aI775
aI775
aI772
aI777
aI774
aI775
aI775
aI775
aI774
aI775
aI772
aI772
aI775
aI774
aI775
aI775
aI773
aI772
aI772
aI774
aI775
aI773
aI776
aI775
aI776
aI773
aI776
aI776
aI773
aI775
aI775
aI775
aI774
aI779
aI775
aI775
aI774
aI775
aI775
aI775
aI773
aI775
aI774
aI775
aI771
aI775
aI771
aI773
aI772
aI775
aI777
aI770
aI777
aI774
aI773
aI774
aI777
aI774
aI773
aI771
aI775
aI775
aI777
aI776
aI776
aI775
aI774
aI774
aI775
aI777
aI774
aI779
aI775
aI776
aI774
aI776
aI776
aI775
aI775
aI775
aI775
aI775
aI775
aI777
aI773
aI773
aI776
aI777
aI775
aI774
aI775
aI775
aI773
aI774
aI771
aI774
aI774
aI776
aI775
aI777
aI774
aI775
aI777
aI770
aI774
aI775
aI773
aI776
aI775
aI776
aI775
aI774
aI776
aI775
aI774
aI775
aI775
aI773
astp27
.