ccollections
defaultdict
p0
(c__builtin__
list
p1
tp2
Rp3
S'a'
p4
(lp5
I340
aI341
aI339
aI341
aI340
aI339
aI341
aI339
aI339
aI341
aI340
aI339
aI339
aI342
aI340
aI340
aI340
aI340
aI339
aI341
aI340
aI338
aI339
aI340
aI339
aI342
aI340
aI340
aI339
aI340
aI340
aI341
aI340
aI339
aI341
aI340
aI339
aI342
aI340
aI339
aI339
aI341
aI340
aI342
aI342
aI339
aI340
aI342
aI341
aI339
aI340
aI340
aI338
aI339
aI339
aI339
aI341
aI339
aI340
aI340
aI339
aI340
aI342
aI339
aI338
aI340
aI339
aI339
aI340
aI340
aI339
aI340
aI341
aI340
aI340
aI341
aI340
aI339
aI340
aI340
aI339
aI340
aI342
aI338
aI340
aI339
aI341
aI340
aI340
aI339
aI340
aI340
aI339
aI339
aI341
aI341
aI340
aI340
aI339
aI340
aI340
aI340
aI341
aI340
aI340
aI341
aI340
aI340
aI339
aI339
aI341
aI340
aI339
aI341
aI339
aI340
aI340
aI339
aI340
aI341
aI340
aI339
aI341
aI341
aI338
aI340
aI341
aI340
aI340
aI341
aI342
aI340
aI340
aI339
aI340
aI340
aI340
aI338
aI339
aI340
aI340
aI341
aI339
aI340
aI340
aI340
aI340
aI340
aI341
aI339
aI339
aI340
aI340
aI340
aI339
aI340
aI341
aI339
aI339
aI340
aI339
aI338
aI339
aI339
aI337
aI341
aI340
aI339
aI340
aI341
aI341
aI340
aI340
aI340
aI341
aI340
aI338
aI340
aI340
aI338
aI339
aI339
aI339
aI341
aI340
aI339
aI340
aI341
aI340
aI340
aI341
aI340
aI339
aI341
aI340
aI339
aI340
aI340
aI340
aI339
aI340
aI339
aI340
aI340
aI339
aI339
aI340
aI341
aI339
aI340
aI341
aI339
aI340
aI342
aI342
aI340
aI342
aI339
aI340
aI340
aI340
aI338
aI340
aI340
aI339
aI341
aI340
aI340
aI340
aI340
aI341
aI340
aI340
aI340
aI339
aI342
aI339
aI339
aI340
aI339
aI339
aI340
aI340
aI339
aI339
aI340
aI339
aI340
aI339
aI341
aI339
aI339
aI339
aI339
aI342
aI340
aI340
aI341
aI340
aI340
aI339
aI341
aI339
aI339
aI341
aI338
aI340
aI340
aI338
aI341
aI340
aI340
aI340
aI343
aI339
aI340
aI341
aI341
aI339
aI341
aI339
aI337
aI340
aI340
aI339
aI341
aI340
aI340
aI340
aI342
aI340
aI339
aI340
aI339
aI339
aI341
aI340
aI339
aI340
aI339
aI339
aI341
aI340
aI340
aI341
aI340
aI340
aI339
aI341
aI341
aI337
aI341
aI339
aI339
aI341
aI339
aI341
aI340
aI341
aI340
aI339
aI341
aI339
aI340
aI340
aI338
aI340
aI340
aI340
aI340
aI341
aI339
aI342
aI340
aI339
aI340
aI340
aI338
aI340
aI340
aI339
aI340
aI340
aI339
aI340
aI340
aI340
aI339
aI340
aI340
aI339
aI341
aI339
aI338
aI340
aI339
aI339
aI341
aI340
aI340
aI340
aI342
aI340
aI340
aI341
aI340
aI339
aI341
aI340
aI339
aI339
aI340
aI340
aI340
aI340
aI340
aI340
aI339
aI339
aI340
aI340
aI339
aI340
aI341
aI340
aI341
aI340
aI339
aI341
aI341
aI340
aI340
aI340
aI339
aI339
aI340
aI339
aI339
aI341
aI341
aI340
aI341
aI339
aI340
aI339
aI340
aI339
aI340
aI341
aI339
aI338
aI340
aI340
aI340
aI340
aI340
aI340
aI341
aI341
asS'c'
p6
(lp7
I492
aI504
aI493
aI492
aI491
aI494
aI492
aI492
aI497
aI492
aI492
aI508
aI492
aI492
aI508
aI492
aI492
aI502
aI493
aI491
aI491
aI496
aI492
aI491
aI501
aI492
aI492
aI512
aI492
aI492
aI506
aI492
aI496
aI494
aI492
aI492
aI497
aI492
aI492
aI504
aI492
aI492
aI510
aI492
aI492
aI503
aI493
aI492
aI492
aI494
aI491
aI492
aI497
aI492
aI511
aI492
aI492
aI508
aI492
aI492
aI499
aI492
aI492
aI491
aI495
aI492
aI492
aI502
aI492
aI491
aI511
aI492
aI492
aI504
aI493
aI491
aI495
aI494
aI491
aI492
aI496
aI492
aI491
aI506
aI492
aI491
aI508
aI492
aI491
aI502
aI492
aI492
aI491
aI494
aI491
aI492
aI499
aI491
aI492
aI511
aI491
aI491
aI508
aI492
aI492
aI498
aI494
aI492
aI491
aI495
aI492
aI492
aI504
aI492
aI492
aI510
aI492
aI504
aI493
aI492
aI493
aI495
aI492
aI491
aI497
aI491
aI492
aI508
aI492
aI492
aI508
aI492
aI491
aI500
aI493
aI491
aI492
aI495
aI492
aI492
aI500
aI492
aI491
aI511
aI492
aI492
aI507
aI492
aI492
aI497
aI493
aI500
aI491
aI491
aI511
aI492
aI492
aI505
aI493
aI492
aI497
aI494
aI492
aI491
aI496
aI491
aI491
aI505
aI492
aI492
aI510
aI492
aI504
aI493
aI491
aI492
aI495
aI492
aI492
aI498
aI492
aI491
aI512
aI492
aI491
aI508
aI492
aI491
aI498
aI494
aI491
aI492
aI496
aI491
aI492
aI501
aI492
aI491
aI510
aI492
aI492
aI505
aI492
aI492
aI496
aI494
aI492
aI491
aI497
aI492
aI492
aI507
aI492
aI492
aI509
aI492
aI492
aI502
aI493
aI492
aI492
aI495
aI492
aI492
aI499
aI492
aI491
aI512
aI492
aI492
aI507
aI492
aI492
aI497
aI493
aI492
aI492
aI496
aI492
aI492
aI505
aI492
aI492
aI510
aI492
aI491
aI504
aI492
aI491
aI494
aI494
aI491
aI492
aI497
aI492
aI492
aI508
aI492
aI492
aI508
aI492
aI491
aI499
aI493
aI491
aI495
aI491
aI492
aI501
aI492
aI491
aI511
aI492
aI491
aI505
aI492
aI492
aI497
aI494
aI492
aI491
aI496
aI492
aI492
aI506
aI492
aI492
aI510
aI492
aI492
aI502
aI492
aI492
aI492
aI495
aI491
aI492
aI499
aI491
aI491
aI511
aI492
aI491
aI507
aI492
aI491
aI499
aI493
aI492
aI491
aI495
aI492
aI491
aI500
aI492
aI492
aI511
aI492
aI491
aI504
aI492
aI492
aI494
aI492
aI491
aI496
aI491
aI508
aI492
aI492
aI510
aI492
aI492
aI502
aI493
aI492
aI492
aI494
aI492
aI491
aI499
aI491
aI491
aI511
aI492
aI491
aI506
aI492
aI491
aI497
aI494
aI492
aI491
aI496
aI492
aI492
aI504
aI492
aI491
aI510
aI492
aI492
aI503
aI492
aI492
aI491
aI494
aI491
aI491
aI497
aI492
aI511
aI491
aI492
aI508
aI492
aI491
aI500
aI493
aI491
aI492
aI496
aI491
aI492
aI499
aI492
aI491
aI512
aI492
aI492
aI505
aI493
aI492
aI495
aI494
aI492
aI492
aI496
aI492
aI491
aI505
aI492
aI492
aI510
aI492
aI492
aI503
aI493
aI492
aI492
aI494
aI492
aI492
aI499
aI492
aI492
aI511
aI492
aI492
asS'b'
p8
(lp9
I422
aI418
aI422
aI421
aI422
aI420
aI422
aI422
aI419
aI423
aI422
aI414
aI422
aI422
aI417
aI423
aI421
aI417
aI422
aI421
aI422
aI419
aI423
aI422
aI417
aI422
aI423
aI413
aI423
aI423
aI417
aI422
aI422
aI422
aI422
aI422
aI419
aI422
aI421
aI414
aI422
aI421
aI416
aI422
aI420
aI417
aI423
aI422
aI421
aI421
aI423
aI421
aI419
aI423
aI415
aI422
aI422
aI416
aI423
aI422
aI421
aI422
aI422
aI421
aI419
aI423
aI422
aI417
aI422
aI420
aI414
aI423
aI422
aI419
aI422
aI422
aI421
aI420
aI422
aI421
aI419
aI422
aI422
aI413
aI422
aI421
aI415
aI423
aI422
aI417
aI421
aI422
aI422
aI420
aI421
aI422
aI418
aI423
aI422
aI414
aI422
aI422
aI415
aI422
aI423
aI422
aI422
aI422
aI422
aI419
aI422
aI421
aI414
aI422
aI421
aI416
aI422
aI417
aI423
aI422
aI421
aI421
aI422
aI421
aI419
aI422
aI422
aI414
aI422
aI421
aI415
aI422
aI422
aI421
aI423
aI423
aI421
aI420
aI423
aI422
aI417
aI421
aI421
aI415
aI422
aI421
aI417
aI422
aI421
aI422
aI421
aI417
aI423
aI422
aI414
aI423
aI421
aI417
aI422
aI422
aI421
aI421
aI422
aI422
aI418
aI423
aI422
aI414
aI423
aI422
aI415
aI422
aI417
aI421
aI421
aI421
aI420
aI422
aI421
aI418
aI422
aI421
aI414
aI422
aI422
aI417
aI423
aI420
aI420
aI420
aI422
aI421
aI418
aI422
aI421
aI417
aI423
aI422
aI415
aI422
aI421
aI418
aI423
aI421
aI421
aI421
aI422
aI421
aI418
aI422
aI422
aI414
aI422
aI422
aI415
aI423
aI422
aI418
aI422
aI421
aI422
aI420
aI422
aI420
aI417
aI423
aI422
aI415
aI423
aI422
aI416
aI423
aI421
aI421
aI421
aI421
aI421
aI419
aI421
aI421
aI414
aI423
aI422
aI416
aI423
aI422
aI418
aI422
aI422
aI422
aI420
aI422
aI420
aI417
aI421
aI420
aI415
aI423
aI421
aI416
aI423
aI421
aI421
aI421
aI423
aI420
aI422
aI420
aI417
aI423
aI422
aI415
aI423
aI422
aI418
aI423
aI423
aI421
aI422
aI421
aI421
aI418
aI422
aI422
aI414
aI422
aI422
aI415
aI423
aI422
aI417
aI423
aI422
aI422
aI420
aI422
aI421
aI417
aI422
aI422
aI414
aI422
aI420
aI417
aI422
aI421
aI421
aI422
aI422
aI421
aI419
aI422
aI421
aI416
aI421
aI421
aI415
aI423
aI422
aI418
aI422
aI422
aI420
aI422
aI423
aI419
aI422
aI415
aI422
aI422
aI416
aI423
aI422
aI419
aI422
aI423
aI420
aI420
aI421
aI422
aI417
aI422
aI422
aI415
aI423
aI422
aI417
aI423
aI422
aI423
aI422
aI422
aI422
aI419
aI422
aI421
aI414
aI423
aI422
aI415
aI422
aI421
aI417
aI422
aI422
aI422
aI420
aI420
aI422
aI419
aI422
aI414
aI422
aI421
aI416
aI423
aI422
aI421
aI422
aI421
aI422
aI419
aI422
aI422
aI417
aI422
aI421
aI415
aI422
aI422
aI418
aI422
aI422
aI420
aI420
aI422
aI422
aI419
aI422
aI422
aI415
aI422
aI422
aI415
aI423
aI422
aI417
aI422
aI422
aI422
aI420
aI422
aI423
aI417
aI422
aI421
aI415
aI423
aI421
asS's'
p10
(lp11
I145990695
aI145992385
aI145994074
aI145995764
aI145997564
aI145999238
aI146000928
aI146002617
aI146004307
aI146005997
aI146007687
aI146009376
aI146011066
aI146012755
aI146014447
aI146016247
aI146017922
aI146019612
aI146021302
aI146022991
aI146024681
aI146026370
aI146028060
aI146029749
aI146031439
aI146033129
aI146034929
aI146036603
aI146038293
aI146039983
aI146041672
aI146045051
aI146046741
aI146048431
aI146050121
aI146051810
aI146053610
aI146055284
aI146056974
aI146058663
aI146060353
aI146062042
aI146063732
aI146065421
aI146067111
aI146068800
aI146070490
aI146072290
aI146073964
aI146075653
aI146077343
aI146079032
aI146080722
aI146084102
aI146085791
aI146087481
aI146089171
aI146090971
aI146092646
aI146094335
aI146096025
aI146097715
aI146099404
aI146101094
aI146102783
aI146104473
aI146106163
aI146107853
aI146109652
aI146111327
aI146113017
aI146114706
aI146116396
aI146118085
aI146119775
aI146121464
aI146123154
aI146124844
aI146126534
aI146128333
aI146130008
aI146131697
aI146133387
aI146135076
aI146136766
aI146138455
aI146140145
aI146141835
aI146143525
aI146145215
aI146147015
aI146148689
aI146150379
aI146152068
aI146153758
aI146155447
aI146157137
aI146158827
aI146160517
aI146162206
aI146163896
aI146165695
aI146167370
aI146169059
aI146170749
aI146172438
aI146174128
aI146175817
aI146177507
aI146179196
aI146180886
aI146182576
aI146184376
aI146186050
aI146187740
aI146189430
aI146191119
aI146194498
aI146196188
aI146197878
aI146199568
aI146201257
aI146203057
aI146204731
aI146206421
aI146208110
aI146209800
aI146211489
aI146213179
aI146214868
aI146216558
aI146218247
aI146219937
aI146221737
aI146223411
aI146225100
aI146226790
aI146228479
aI146230169
aI146231859
aI146233549
aI146235238
aI146236928
aI146238617
aI146240417
aI146242092
aI146243781
aI146245471
aI146247161
aI146248851
aI146250540
aI146435660
aI146437349
aI146439039
aI146440728
aI146442418
aI146444107
aI146445907
aI146447581
aI146449271
aI146450960
aI146452650
aI146454340
aI146456030
aI146457719
aI146459409
aI146461098
aI146462788
aI146464588
aI146466262
aI146467952
aI146471332
aI146473024
aI146474713
aI146476403
aI146478092
aI146479782
aI146481472
aI146483272
aI146484946
aI146486636
aI146488326
aI146490015
aI146491705
aI146493394
aI146495084
aI146496773
aI146498463
aI146500153
aI146501953
aI146503627
aI146505317
aI146507007
aI146508696
aI146510386
aI146512075
aI146513765
aI146515455
aI146517145
aI146518834
aI146520634
aI146522308
aI146523998
aI146525687
aI146527377
aI146529066
aI146530756
aI146532445
aI146534135
aI146535824
aI146537514
aI146539314
aI146540988
aI146542677
aI146544367
aI146546056
aI146547746
aI146549436
aI146551126
aI146552815
aI146554505
aI146556194
aI146557994
aI146559669
aI146561358
aI146563048
aI146564738
aI146566428
aI146568117
aI146569807
aI146571496
aI146573186
aI146574875
aI146576675
aI146578349
aI146580038
aI146581728
aI146583417
aI146585107
aI146586796
aI146588486
aI146590175
aI146591865
aI146593554
aI146595354
aI146597028
aI146598718
aI146600407
aI146602097
aI146603787
aI146605477
aI146607166
aI146608856
aI146610545
aI146612235
aI146614035
aI146615709
aI146617399
aI146619088
aI146620778
aI146622468
aI146624158
aI146625847
aI146627537
aI146629226
aI146632715
aI146634390
aI146636079
aI146637769
aI146639458
aI146641148
aI146642837
aI146644527
aI146646217
aI146647907
aI146649596
aI146651396
aI146653071
aI146654760
aI146656450
aI146658139
aI146659829
aI146661519
aI146663209
aI146664898
aI146666588
aI146668277
aI146670077
aI146671751
aI146673441
aI146675130
aI146676820
aI146678509
aI146680199
aI146681888
aI146683578
aI146685268
aI146686958
aI146688757
aI146690432
aI146692122
aI146693811
aI146695501
aI146697190
aI146698880
aI146700569
aI146702259
aI146703949
aI146705639
aI146707438
aI146709113
aI146710802
aI146712492
aI146714181
aI146715871
aI146717560
aI146719250
aI146720939
aI146722629
aI146724318
aI146726118
aI146727792
aI146731171
aI146732861
aI146734551
aI146736241
aI146739620
aI146741309
aI146742999
aI146744799
aI146746473
aI146748163
aI146749852
aI146751542
aI146753232
aI146754922
aI146756611
aI146758301
aI146759990
aI146761680
aI146763479
aI146765154
aI146766843
aI146768533
aI146770222
aI146771912
aI146773601
aI146775291
aI146776981
aI146778671
aI146780360
aI146782160
aI146783835
aI146785524
aI146787214
aI146788903
aI146790593
aI146792283
aI146793973
aI146795662
aI146797352
aI146799041
aI146800841
aI146802515
aI146804205
aI146805894
aI146807584
aI146809273
aI146810963
aI146812652
aI146816032
aI146817722
aI146819521
aI146821196
aI146822886
aI146824575
aI146826265
aI146827954
aI146829644
aI146831333
aI146833023
aI146834713
aI146836403
aI146838202
aI146839877
aI146841566
aI146843256
aI146844945
aI146846635
aI146848324
aI146850014
aI146851703
aI146853393
aI146855082
aI146856882
aI146858556
aI146860246
aI146861935
aI146863625
aI146865315
aI146867007
aI146868697
aI146870386
aI146872076
aI146873765
aI146875565
aI146877239
aI146878929
aI146880618
aI146882308
aI146883998
aI146885688
aI146887377
aI146889067
aI146890756
aI146892446
aI146894246
aI146895920
aI146897610
asS'y'
p12
(lp13
I453
aI451
aI455
aI450
aI452
aI451
aI455
aI454
aI451
aI453
aI451
aI452
aI451
aI455
aI449
aI452
aI452
aI453
aI456
aI454
aI454
aI454
aI452
aI454
aI454
aI452
aI450
aI459
aI451
aI451
aI455
aI455
aI454
aI451
aI451
aI454
aI453
aI454
aI451
aI454
aI452
aI451
aI451
aI454
aI455
aI455
aI455
aI451
aI455
aI453
aI453
aI454
aI456
aI452
aI453
aI454
aI451
aI454
aI453
aI452
aI454
aI456
aI455
aI453
aI453
aI451
aI452
aI452
aI452
aI456
aI449
aI453
aI455
aI452
aI455
aI453
aI451
aI454
aI452
aI455
aI453
aI453
aI450
aI455
aI451
aI451
aI456
aI452
aI460
aI454
aI455
aI453
aI454
aI455
aI452
aI453
aI453
aI454
aI456
aI452
aI455
aI451
aI455
aI455
aI452
aI451
aI455
aI451
aI455
aI451
aI457
aI453
aI452
aI453
aI448
aI451
aI452
aI452
aI452
aI451
aI452
aI455
aI453
aI449
aI454
aI451
aI453
aI453
aI455
aI451
aI451
aI451
aI457
aI454
aI451
aI451
aI455
aI453
aI454
aI452
aI452
aI453
aI454
aI453
aI454
aI452
aI452
aI454
aI451
aI452
aI454
aI454
aI452
aI454
aI457
aI454
aI455
aI451
aI452
aI455
aI451
aI453
aI454
aI454
aI454
aI455
aI453
aI453
aI455
aI454
aI455
aI452
aI451
aI450
aI453
aI451
aI453
aI449
aI456
aI449
aI454
aI454
aI454
aI455
aI454
aI453
aI454
aI454
aI453
aI452
aI454
aI455
aI454
aI454
aI455
aI453
aI451
aI451
aI451
aI452
aI452
aI450
aI454
aI451
aI459
aI454
aI451
aI455
aI453
aI455
aI454
aI451
aI457
aI454
aI454
aI452
aI457
aI451
aI449
aI452
aI454
aI452
aI453
aI452
aI455
aI454
aI455
aI456
aI456
aI455
aI456
aI452
aI454
aI457
aI452
aI453
aI451
aI452
aI453
aI451
aI449
aI452
aI452
aI453
aI456
aI449
aI447
aI454
aI452
aI453
aI456
aI451
aI455
aI451
aI455
aI452
aI454
aI453
aI453
aI454
aI451
aI454
aI454
aI455
aI451
aI450
aI454
aI456
aI449
aI452
aI455
aI453
aI457
aI455
aI455
aI454
aI457
aI454
aI454
aI450
aI451
aI452
aI450
aI450
aI452
aI452
aI452
aI451
aI458
aI452
aI454
aI453
aI452
aI452
aI453
aI455
aI454
aI453
aI453
aI456
aI455
aI455
aI450
aI453
aI452
aI451
aI454
aI452
aI454
aI453
aI453
aI454
aI454
aI457
aI453
aI452
aI449
aI454
aI454
aI454
aI452
aI453
aI452
aI455
aI451
aI455
aI453
aI450
aI454
aI451
aI456
aI455
aI456
aI455
aI452
aI454
aI454
aI451
aI453
aI452
aI449
aI455
aI454
aI451
aI452
aI452
aI453
aI452
aI452
aI457
aI454
aI453
aI455
aI454
aI453
aI454
aI451
aI452
aI455
aI453
aI455
aI451
aI452
aI454
aI451
aI454
aI452
aI453
aI455
aI451
aI454
aI452
aI454
aI455
aI454
aI454
aI454
aI453
aI454
aI451
aI451
aI454
aI453
aI454
aI455
aI455
aI452
aI451
aI456
aI455
aI452
aI452
aI448
aI451
aI456
aI453
aI452
aI455
aI451
aI453
aI454
aI451
aI455
aI454
aI453
aI453
aI451
aI453
aI452
aI452
aI454
aI452
aI453
aI454
aI457
aI451
aI449
aI451
aI451
asS'x'
p14
(lp15
I540
aI539
aI536
aI537
aI538
aI536
aI539
aI539
aI540
aI537
aI540
aI540
aI536
aI540
aI539
aI540
aI538
aI541
aI537
aI540
aI540
aI538
aI536
aI540
aI536
aI539
aI541
aI541
aI539
aI540
aI539
aI540
aI540
aI540
aI537
aI540
aI540
aI540
aI537
aI540
aI537
aI535
aI536
aI539
aI537
aI538
aI536
aI542
aI541
aI539
aI540
aI539
aI538
aI537
aI542
aI539
aI540
aI540
aI536
aI537
aI538
aI536
aI539
aI541
aI536
aI539
aI537
aI537
aI538
aI540
aI537
aI541
aI538
aI537
aI540
aI540
aI536
aI540
aI539
aI536
aI541
aI539
aI539
aI539
aI541
aI540
aI540
aI537
aI540
aI541
aI540
aI537
aI539
aI543
aI539
aI537
aI536
aI536
aI536
aI539
aI538
aI540
aI538
aI538
aI537
aI537
aI543
aI536
aI538
aI539
aI538
aI538
aI540
aI540
aI537
aI537
aI534
aI541
aI540
aI536
aI539
aI540
aI537
aI540
aI537
aI538
aI540
aI539
aI541
aI540
aI541
aI540
aI536
aI540
aI542
aI538
aI542
aI538
aI539
aI538
aI541
aI538
aI538
aI536
aI537
aI540
aI542
aI538
aI540
aI539
aI536
aI543
aI538
aI537
aI539
aI539
aI541
aI539
aI539
aI540
aI539
aI540
aI537
aI537
aI539
aI542
aI540
aI540
aI541
aI540
aI540
aI540
aI539
aI539
aI540
aI538
aI541
aI542
aI541
aI536
aI539
aI537
aI540
aI538
aI536
aI536
aI538
aI540
aI537
aI540
aI542
aI542
aI539
aI536
aI536
aI539
aI540
aI540
aI540
aI539
aI537
aI538
aI539
aI540
aI539
aI539
aI543
aI537
aI537
aI538
aI539
aI540
aI538
aI541
aI539
aI536
aI541
aI540
aI537
aI539
aI538
aI537
aI536
aI538
aI538
aI537
aI537
aI539
aI537
aI541
aI540
aI541
aI540
aI539
aI541
aI539
aI537
aI538
aI540
aI538
aI537
aI537
aI539
aI538
aI540
aI536
aI540
aI540
aI538
aI537
aI536
aI542
aI538
aI539
aI539
aI537
aI540
aI540
aI540
aI541
aI543
aI540
aI541
aI538
aI536
aI536
aI539
aI536
aI540
aI535
aI537
aI538
aI539
aI539
aI540
aI536
aI540
aI540
aI539
aI540
aI540
aI537
aI537
aI536
aI537
aI539
aI536
aI539
aI542
aI539
aI537
aI540
aI537
aI540
aI536
aI540
aI540
aI540
aI538
aI541
aI536
aI539
aI540
aI540
aI539
aI538
aI538
aI542
aI534
aI539
aI537
aI542
aI539
aI538
aI540
aI538
aI536
aI536
aI540
aI539
aI541
aI539
aI538
aI540
aI540
aI538
aI537
aI538
aI537
aI540
aI539
aI537
aI540
aI540
aI534
aI540
aI539
aI536
aI538
aI540
aI538
aI539
aI538
aI543
aI539
aI538
aI540
aI537
aI537
aI540
aI540
aI537
aI536
aI535
aI536
aI540
aI538
aI540
aI539
aI542
aI540
aI542
aI539
aI538
aI539
aI536
aI537
aI541
aI535
aI535
aI539
aI541
aI539
aI539
aI542
aI540
aI536
aI536
aI539
aI540
aI541
aI539
aI539
aI537
aI539
aI540
aI539
aI536
aI537
aI537
aI539
aI539
aI540
aI540
aI543
aI536
aI539
aI537
aI537
aI536
aI540
aI539
aI540
aI539
aI539
aI537
aI539
aI540
aI537
aI540
aI539
aI540
aI539
aI536
aI536
aI538
aI538
aI539
aI536
asS'z'
p16
(lp17
I772
aI773
aI772
aI774
aI774
aI775
aI775
aI775
aI776
aI774
aI774
aI772
aI774
aI775
aI775
aI776
aI773
aI774
aI774
aI774
aI776
aI774
aI774
aI774
aI775
aI775
aI773
aI773
aI774
aI775
aI776
aI774
aI773
aI774
aI775
aI774
aI775
aI774
aI775
aI775
aI775
aI775
aI771
aI772
aI775
aI775
aI776
aI775
aI775
aI775
aI774
aI775
aI774
aI774
aI775
aI774
aI774
aI774
aI775
aI772
aI775
aI776
aI772
aI774
aI775
aI772
aI777
aI770
aI773
aI772
aI774
aI775
aI774
aI775
aI775
aI772
aI774
aI772
aI774
aI774
aI775
aI772
aI774
aI775
aI776
aI775
aI776
aI772
aI775
aI774
aI777
aI774
aI774
aI775
aI771
aI775
aI772
aI772
aI771
aI771
aI774
aI775
aI773
aI775
aI774
aI774
aI776
aI774
aI771
aI771
aI775
aI775
aI774
aI775
aI780
aI776
aI774
aI775
aI777
aI774
aI773
aI779
aI773
aI774
aI775
aI775
aI775
aI772
aI774
aI774
aI775
aI777
aI774
aI775
aI775
aI775
aI775
aI772
aI780
aI774
aI772
aI771
aI776
aI776
aI771
aI774
aI773
aI776
aI773
aI775
aI774
aI773
aI775
aI777
aI775
aI775
aI779
aI775
aI777
aI775
aI774
aI774
aI773
aI774
aI774
aI776
aI774
aI774
aI772
aI775
aI774
aI773
aI775
aI774
aI775
aI776
aI770
aI776
aI774
aI774
aI775
aI776
aI772
aI773
aI774
aI773
aI774
aI772
aI775
aI772
aI775
aI774
aI775
aI780
aI775
aI775
aI777
aI775
aI774
aI775
aI775
aI772
aI775
aI775
aI776
aI776
aI773
aI774
aI771
aI775
aI769
aI775
aI774
aI774
aI774
aI772
aI775
aI773
aI773
aI774
aI775
aI773
aI772
aI775
aI774
aI775
aI775
aI773
aI774
aI774
aI776
aI772
aI773
aI775
aI775
aI773
aI772
aI779
aI773
aI775
aI772
aI776
aI772
aI776
aI772
aI770
aI774
aI774
aI774
aI772
aI775
aI775
aI775
aI772
aI770
aI776
aI773
aI774
aI776
aI772
aI773
aI773
aI774
aI775
aI774
aI775
aI775
aI777
aI774
aI775
aI775
aI775
aI775
aI775
aI776
aI775
aI775
aI777
aI774
aI771
aI775
aI773
aI775
aI771
aI773
aI777
aI775
aI774
aI772
aI774
aI772
aI774
aI772
aI772
aI774
aI775
aI773
aI775
aI775
aI772
aI771
aI772
aI775
aI777
aI773
aI775
aI773
aI772
aI773
aI776
aI775
aI773
aI775
aI775
aI772
aI773
aI774
aI776
aI772
aI775
aI772
aI775
aI772
aI774
aI774
aI775
aI773
aI773
aI772
aI775
aI772
aI776
aI773
aI775
aI772
aI774
aI774
aI774
aI773
aI774
aI774
aI772
aI777
aI773
aI775
aI774
aI774
aI774
aI775
aI775
aI775
aI774
aI774
aI772
aI777
aI775
aI774
aI774
aI775
aI775
aI772
aI775
aI775
aI774
aI775
aI773
aI774
aI774
aI773
aI775
aI772
aI774
aI774
aI775
aI774
aI774
aI774
aI776
aI774
aI777
aI774
aI775
aI776
aI775
aI770
aI775
aI773
aI773
aI775
aI776
aI772
aI776
aI775
aI774
aI775
aI774
aI775
aI772
aI772
aI772
aI772
aI774
aI774
aI774
aI772
aI774
aI774
aI775
aI775
aI775
aI777
aI774
aI775
aI775
aI774
aI775
aI772
aI775
aI774
as.