ccollections
defaultdict
p0
(c__builtin__
list
p1
tp2
Rp3
S'a'
p4
(lp5
I339
aI341
aI340
aI342
aI340
aI341
aI339
aI339
aI340
aI340
aI338
aI340
aI340
aI340
aI340
aI342
aI339
aI341
aI342
aI341
aI340
aI342
aI340
aI339
aI341
aI340
aI339
aI341
aI340
aI339
aI341
aI340
aI340
aI340
aI341
aI340
aI340
aI340
aI339
aI339
aI341
aI340
aI338
aI342
aI340
aI339
aI340
aI340
aI340
aI339
aI341
aI341
aI339
aI340
aI341
aI338
aI340
aI340
aI339
aI340
aI340
aI340
aI341
aI341
aI339
aI339
aI339
aI341
aI339
aI340
aI341
aI338
aI342
aI339
aI340
aI341
aI342
aI341
aI341
aI341
aI340
aI341
aI340
aI338
aI340
aI340
aI340
aI341
aI340
aI339
aI341
aI340
aI342
aI341
aI341
aI340
aI340
aI342
aI339
aI339
aI340
aI340
aI341
aI341
aI340
aI339
aI340
aI341
aI339
aI339
aI341
aI339
aI339
aI341
aI340
aI339
aI341
aI341
aI340
aI341
aI342
aI340
aI341
aI339
aI340
aI340
aI339
aI337
aI340
aI340
aI339
aI341
aI340
aI340
aI339
aI340
aI341
aI341
aI342
aI341
aI339
aI342
aI341
aI338
aI339
aI339
aI340
aI339
aI339
aI342
aI341
aI339
aI340
aI339
aI339
aI339
aI340
aI340
aI337
aI341
aI340
aI340
aI341
aI342
aI341
aI340
aI341
aI340
aI339
aI341
aI340
aI338
aI340
aI340
aI339
aI341
aI340
aI340
aI340
aI340
aI341
aI342
aI342
aI341
aI339
aI341
aI340
aI339
aI340
aI340
aI339
aI340
aI341
aI340
aI341
aI341
aI340
aI341
aI341
aI340
aI340
aI342
aI340
aI339
aI341
aI340
aI339
aI340
aI341
aI341
aI339
aI340
aI341
aI342
aI342
aI340
aI337
aI342
aI340
aI339
aI340
aI339
aI340
aI340
aI340
aI340
aI340
aI341
aI340
aI339
aI342
aI340
aI339
aI341
aI341
aI339
aI340
aI341
aI340
aI342
aI341
aI340
aI339
aI341
aI341
aI339
aI340
aI340
aI339
aI340
aI339
aI341
aI341
aI341
aI342
aI341
aI340
aI341
aI340
aI340
aI341
aI338
aI341
aI340
aI340
aI340
aI341
aI341
aI340
aI340
aI342
aI341
aI340
aI340
aI342
aI339
aI339
aI340
aI340
aI340
aI340
aI341
aI340
aI341
aI340
aI342
aI340
aI341
aI340
aI339
aI342
aI341
aI340
asS'c'
p6
(lp7
I506
aI492
aI492
aI508
aI492
aI492
aI501
aI492
aI491
aI491
aI495
aI492
aI491
aI499
aI492
aI492
aI510
aI492
aI491
aI506
aI492
aI491
aI495
aI494
aI492
aI491
aI495
aI492
aI492
aI504
aI492
aI491
aI509
aI492
aI492
aI502
aI493
aI492
aI492
aI494
aI491
aI492
aI497
aI492
aI492
aI511
aI492
aI491
aI508
aI492
aI492
aI499
aI493
aI491
aI492
aI496
aI492
aI492
aI499
aI492
aI492
aI510
aI492
aI491
aI505
aI492
aI491
aI494
aI494
aI492
aI491
aI496
aI492
aI491
aI506
aI492
aI492
aI508
aI492
aI502
aI492
aI492
aI491
aI495
aI491
aI491
aI499
aI492
aI492
aI510
aI492
aI491
aI507
aI492
aI492
aI499
aI493
aI491
aI491
aI496
aI492
aI491
aI500
aI491
aI491
aI509
aI492
aI492
aI504
aI492
aI492
aI491
aI494
aI492
aI491
aI496
aI492
aI491
aI492
aI492
aI508
aI492
aI492
aI501
aI493
aI491
aI491
aI494
aI491
aI492
aI499
aI492
aI491
aI511
aI492
aI491
aI505
aI510
aI492
aI497
aI494
aI491
aI492
aI496
aI492
aI504
aI492
aI491
aI509
aI492
aI492
aI502
aI492
aI492
aI491
aI494
aI492
aI491
aI496
aI492
aI491
aI510
aI491
aI492
aI507
aI492
aI491
aI499
aI494
aI492
aI492
aI496
aI492
aI491
aI501
aI492
aI492
aI510
aI492
aI492
aI504
aI492
aI492
aI496
aI494
aI492
aI492
aI496
aI491
aI491
aI505
aI492
aI492
aI509
aI492
aI491
aI500
aI493
aI491
aI492
aI495
aI492
aI492
aI499
aI492
aI492
aI510
aI492
aI491
aI508
aI492
aI492
aI497
aI508
aI492
aI492
aI495
aI492
aI491
aI504
aI491
aI492
aI510
aI492
aI492
aI504
aI492
aI491
aI494
aI494
aI492
aI492
aI496
aI491
aI491
aI506
aI491
aI491
aI508
aI492
aI492
aI500
aI493
aI492
aI492
aI495
aI492
aI491
aI500
aI492
aI492
aI510
aI492
aI492
aI506
aI492
aI491
aI497
aI494
aI492
aI492
aI496
aI491
aI492
aI503
aI492
aI491
aI509
aI492
aI502
aI493
aI492
aI491
aI494
aI491
aI492
aI498
aI492
aI491
aI510
aI491
aI492
aI507
aI492
aI492
aI500
aI493
aI492
aI492
aI495
aI492
aI492
aI500
asS'b'
p8
(lp9
I412
aI420
aI419
aI414
aI419
aI420
aI416
aI419
aI419
aI419
aI417
aI419
aI419
aI416
aI419
aI419
aI413
aI419
aI419
aI415
aI419
aI419
aI419
aI419
aI419
aI419
aI417
aI420
aI420
aI412
aI420
aI420
aI414
aI419
aI419
aI415
aI420
aI419
aI419
aI418
aI420
aI419
aI416
aI419
aI419
aI412
aI420
aI419
aI414
aI421
aI420
aI419
aI419
aI419
aI419
aI417
aI419
aI419
aI416
aI419
aI419
aI414
aI419
aI419
aI415
aI420
aI419
aI419
aI419
aI420
aI419
aI416
aI420
aI419
aI412
aI420
aI419
aI414
aI420
aI416
aI420
aI419
aI419
aI417
aI419
aI419
aI415
aI419
aI419
aI412
aI419
aI420
aI415
aI421
aI420
aI419
aI419
aI418
aI419
aI417
aI419
aI419
aI416
aI420
aI419
aI413
aI421
aI419
aI415
aI419
aI419
aI418
aI419
aI419
aI419
aI416
aI419
aI419
aI420
aI419
aI415
aI421
aI419
aI415
aI419
aI419
aI419
aI418
aI419
aI419
aI415
aI420
aI419
aI413
aI419
aI419
aI415
aI414
aI420
aI419
aI419
aI420
aI419
aI416
aI419
aI412
aI420
aI419
aI414
aI421
aI419
aI415
aI419
aI419
aI419
aI419
aI419
aI420
aI416
aI419
aI419
aI414
aI420
aI420
aI416
aI420
aI419
aI419
aI419
aI420
aI419
aI417
aI419
aI419
aI415
aI419
aI419
aI413
aI420
aI419
aI416
aI419
aI420
aI418
aI419
aI419
aI420
aI417
aI419
aI420
aI413
aI420
aI420
aI414
aI420
aI419
aI419
aI420
aI419
aI419
aI418
aI419
aI419
aI415
aI419
aI419
aI413
aI419
aI419
aI414
aI420
aI419
aI420
aI415
aI421
aI420
aI417
aI419
aI418
aI412
aI420
aI419
aI414
aI420
aI419
aI415
aI419
aI419
aI418
aI418
aI420
aI419
aI416
aI419
aI419
aI413
aI419
aI419
aI414
aI419
aI419
aI419
aI420
aI420
aI419
aI417
aI420
aI419
aI416
aI419
aI419
aI413
aI420
aI419
aI415
aI419
aI419
aI419
aI419
aI420
aI419
aI416
aI419
aI419
aI412
aI420
aI419
aI413
aI419
aI415
aI420
aI420
aI419
aI418
aI419
aI420
aI416
aI420
aI419
aI413
aI419
aI419
aI415
aI420
aI419
aI419
aI419
aI419
aI419
aI418
aI419
aI419
aI416
asS's'
p10
(lp11
I205585984
aI205587674
aI205589473
aI205591148
aI205592838
aI205594527
aI205596217
aI205597906
aI205599596
aI205601285
aI205602975
aI205604665
aI205606355
aI205608154
aI205609829
aI205611518
aI205613208
aI205614897
aI205616587
aI205618276
aI205619966
aI205621655
aI205623345
aI205625034
aI205626834
aI205628508
aI205630198
aI205631887
aI205633577
aI205635267
aI205636957
aI205638646
aI205640336
aI205642025
aI205643715
aI205645515
aI205647189
aI205648879
aI205650568
aI205652258
aI205653948
aI205655638
aI205657327
aI205659017
aI205660706
aI205662396
aI205664195
aI205665870
aI205667559
aI205669249
aI205670938
aI205672628
aI205674317
aI205676007
aI205677697
aI205679387
aI205681076
aI205682876
aI205684551
aI205686240
aI205687930
aI205689619
aI205691309
aI205692999
aI205694689
aI205696378
aI205698068
aI205699757
aI205701557
aI205703231
aI205704921
aI205706610
aI205708300
aI205709989
aI205711679
aI205713368
aI205715058
aI205716748
aI205718438
aI205721912
aI205723602
aI205725291
aI205726981
aI205728670
aI205730360
aI205732049
aI205733739
aI205735429
aI205737119
aI205738918
aI205740593
aI205742282
aI205743972
aI205745661
aI205747351
aI205749040
aI205750730
aI205752419
aI205754109
aI205755798
aI205757598
aI205759272
aI205760962
aI205762651
aI205764341
aI205766031
aI205767721
aI205769410
aI205771100
aI205772789
aI205774479
aI205776279
aI205777953
aI205779643
aI205781332
aI205783022
aI205784712
aI205786402
aI205789781
aI205791471
aI205793161
aI205794961
aI205796635
aI205798325
aI205800015
aI205801704
aI205803394
aI205805083
aI205806773
aI205808463
aI205810153
aI205811842
aI205813642
aI205815316
aI205817006
aI205818695
aI205820385
aI205822074
aI205823764
aI205825453
aI205827143
aI205828832
aI205830522
aI205832322
aI205835685
aI205837375
aI205839064
aI205840754
aI205842444
aI205844134
aI205845824
aI205847513
aI205849206
aI205851005
aI205852680
aI205854370
aI205856059
aI205857749
aI205859438
aI205861128
aI205862817
aI205864507
aI205866196
aI205867886
aI205869686
aI205871361
aI205873050
aI205874740
aI205876430
aI205878119
aI205879809
aI205881498
aI205883188
aI205884878
aI205886568
aI205888367
aI205890042
aI205891732
aI205893421
aI205895111
aI205896800
aI205898490
aI205900179
aI205901869
aI205903559
aI205905249
aI205907048
aI205908723
aI205910412
aI205912102
aI205913791
aI205915481
aI205917170
aI205918860
aI205920549
aI205922239
aI205923928
aI205925728
aI205927402
aI205929092
aI205930781
aI205932471
aI205934161
aI205935851
aI205937540
aI205939230
aI205940919
aI205942609
aI205944409
aI205946083
aI205947773
aI205949462
aI205951152
aI205952842
aI205954532
aI205956221
aI205957911
aI205959600
aI205961290
aI205963089
aI205964764
aI205966453
aI205968143
aI205969832
aI205971522
aI205973211
aI205974901
aI205976591
aI205978281
aI205979970
aI205981770
aI205983445
aI205985134
aI205986824
aI205988513
aI205990203
aI205991893
aI205993583
aI205995272
aI205996962
aI205998651
aI206000451
aI206002125
aI206003815
aI206005504
aI206007194
aI206008883
aI206010573
aI206012262
aI206013952
aI206015642
aI206017332
aI206019131
aI206020806
aI206022496
aI206024185
aI206025875
aI206027564
aI206029254
aI206030943
aI206032633
aI206034323
aI206036013
aI206037812
aI206039487
aI206041176
aI206042866
aI206044555
aI206046245
aI206049624
aI206051313
aI206053003
aI206054692
aI206056492
aI206058166
aI206059856
aI206061545
aI206063235
aI206064925
aI206066615
aI206068304
aI206069994
aI206071683
aI206073373
aI206075173
aI206076847
aI206078537
aI206080226
aI206081916
aI206083606
aI206085296
aI206086985
aI206088675
asS'y'
p12
(lp13
I458
aI455
aI455
aI455
aI454
aI459
aI454
aI452
aI454
aI457
aI454
aI457
aI455
aI453
aI456
aI455
aI454
aI455
aI454
aI454
aI455
aI454
aI455
aI456
aI455
aI454
aI452
aI453
aI455
aI456
aI455
aI454
aI452
aI457
aI455
aI455
aI457
aI455
aI456
aI451
aI455
aI456
aI455
aI458
aI455
aI457
aI454
aI452
aI453
aI455
aI456
aI455
aI457
aI454
aI453
aI455
aI454
aI453
aI455
aI453
aI454
aI452
aI456
aI455
aI456
aI454
aI452
aI454
aI455
aI455
aI455
aI458
aI452
aI456
aI454
aI453
aI455
aI453
aI454
aI457
aI455
aI453
aI454
aI456
aI459
aI455
aI457
aI455
aI455
aI454
aI455
aI455
aI453
aI458
aI455
aI457
aI456
aI458
aI455
aI456
aI452
aI457
aI452
aI452
aI455
aI456
aI455
aI455
aI455
aI457
aI451
aI457
aI454
aI454
aI455
aI452
aI452
aI457
aI455
aI452
aI457
aI459
aI455
aI453
aI457
aI457
aI455
aI455
aI455
aI452
aI455
aI455
aI454
aI452
aI455
aI451
aI455
aI455
aI454
aI451
aI457
aI452
aI451
aI455
aI456
aI452
aI455
aI457
aI457
aI454
aI455
aI455
aI452
aI454
aI455
aI456
aI457
aI454
aI455
aI456
aI453
aI451
aI460
aI456
aI455
aI455
aI455
aI454
aI458
aI456
aI455
aI455
aI453
aI454
aI456
aI456
aI451
aI452
aI455
aI456
aI456
aI456
aI456
aI457
aI454
aI454
aI455
aI453
aI455
aI453
aI452
aI461
aI455
aI455
aI452
aI457
aI457
aI455
aI455
aI454
aI454
aI456
aI455
aI457
aI452
aI452
aI452
aI455
aI456
aI459
aI451
aI456
aI455
aI458
aI455
aI455
aI452
aI454
aI452
aI454
aI456
aI457
aI455
aI457
aI452
aI452
aI456
aI457
aI454
aI457
aI455
aI452
aI452
aI458
aI457
aI456
aI456
aI454
aI453
aI455
aI458
aI459
aI454
aI455
aI454
aI455
aI455
aI455
aI455
aI456
aI457
aI454
aI458
aI455
aI451
aI456
aI455
aI454
aI453
aI456
aI458
aI455
aI457
aI454
aI455
aI455
aI458
aI453
aI454
aI457
aI457
aI457
aI455
aI452
aI455
aI453
aI454
aI449
aI457
aI455
aI455
aI454
aI459
aI455
aI455
aI456
aI455
aI455
aI452
aI452
aI451
aI455
aI458
asS'x'
p14
(lp15
I542
aI540
aI538
aI537
aI537
aI540
aI540
aI540
aI540
aI539
aI539
aI538
aI537
aI537
aI537
aI539
aI537
aI539
aI543
aI540
aI540
aI538
aI543
aI540
aI539
aI542
aI541
aI537
aI536
aI538
aI538
aI540
aI540
aI537
aI534
aI536
aI540
aI539
aI540
aI536
aI541
aI537
aI537
aI537
aI538
aI537
aI536
aI540
aI540
aI540
aI538
aI540
aI539
aI538
aI541
aI539
aI538
aI537
aI540
aI537
aI538
aI540
aI537
aI537
aI538
aI539
aI536
aI539
aI539
aI538
aI538
aI540
aI540
aI537
aI536
aI536
aI539
aI541
aI542
aI541
aI539
aI541
aI540
aI539
aI537
aI539
aI537
aI537
aI538
aI536
aI540
aI539
aI536
aI539
aI540
aI539
aI540
aI536
aI538
aI540
aI540
aI540
aI539
aI536
aI536
aI539
aI540
aI541
aI537
aI539
aI538
aI538
aI537
aI537
aI535
aI538
aI539
aI537
aI536
aI542
aI536
aI542
aI541
aI541
aI537
aI536
aI539
aI535
aI537
aI533
aI542
aI536
aI539
aI536
aI537
aI539
aI539
aI540
aI538
aI539
aI540
aI539
aI539
aI539
aI537
aI538
aI540
aI537
aI536
aI541
aI540
aI542
aI537
aI536
aI536
aI539
aI540
aI536
aI543
aI539
aI537
aI539
aI537
aI540
aI540
aI536
aI536
aI539
aI537
aI539
aI538
aI540
aI540
aI538
aI538
aI536
aI540
aI538
aI534
aI539
aI539
aI537
aI541
aI540
aI534
aI536
aI538
aI540
aI536
aI538
aI536
aI539
aI539
aI532
aI537
aI538
aI536
aI539
aI539
aI539
aI535
aI538
aI540
aI536
aI540
aI538
aI541
aI539
aI536
aI536
aI537
aI538
aI539
aI539
aI538
aI538
aI543
aI540
aI539
aI538
aI538
aI537
aI540
aI537
aI537
aI537
aI539
aI539
aI538
aI538
aI536
aI539
aI537
aI539
aI538
aI536
aI537
aI536
aI540
aI542
aI538
aI536
aI540
aI540
aI538
aI540
aI538
aI539
aI538
aI541
aI537
aI540
aI539
aI540
aI540
aI536
aI541
aI538
aI537
aI541
aI536
aI536
aI539
aI541
aI540
aI536
aI542
aI539
aI534
aI539
aI536
aI536
aI538
aI537
aI537
aI537
aI539
aI539
aI539
aI538
aI537
aI536
aI540
aI536
aI540
aI540
aI540
aI540
aI539
aI537
aI536
aI538
aI537
asS'z'
p16
(lp17
I774
aI773
aI775
aI774
aI776
aI771
aI773
aI770
aI775
aI777
aI776
aI774
aI774
aI776
aI775
aI775
aI772
aI773
aI775
aI776
aI773
aI773
aI772
aI774
aI773
aI775
aI774
aI772
aI772
aI776
aI769
aI773
aI770
aI776
aI777
aI772
aI777
aI773
aI773
aI773
aI772
aI775
aI774
aI776
aI775
aI774
aI775
aI772
aI775
aI771
aI774
aI775
aI775
aI773
aI776
aI774
aI776
aI775
aI775
aI774
aI775
aI774
aI772
aI775
aI772
aI771
aI774
aI776
aI774
aI775
aI774
aI770
aI773
aI773
aI775
aI774
aI774
aI775
aI772
aI775
aI774
aI774
aI772
aI775
aI773
aI775
aI775
aI773
aI774
aI775
aI774
aI776
aI772
aI776
aI774
aI774
aI774
aI775
aI775
aI775
aI774
aI774
aI775
aI773
aI771
aI774
aI775
aI774
aI776
aI777
aI773
aI774
aI771
aI775
aI773
aI777
aI776
aI772
aI774
aI781
aI773
aI771
aI773
aI776
aI774
aI774
aI772
aI775
aI775
aI772
aI774
aI775
aI774
aI777
aI775
aI773
aI771
aI774
aI776
aI775
aI777
aI773
aI774
aI773
aI774
aI774
aI774
aI776
aI775
aI776
aI775
aI775
aI775
aI776
aI773
aI773
aI777
aI773
aI771
aI772
aI774
aI774
aI775
aI773
aI775
aI773
aI773
aI775
aI775
aI772
aI775
aI773
aI771
aI775
aI775
aI774
aI775
aI773
aI773
aI772
aI772
aI774
aI773
aI774
aI774
aI775
aI773
aI773
aI774
aI774
aI776
aI772
aI775
aI773
aI775
aI773
aI775
aI773
aI776
aI779
aI772
aI771
aI775
aI771
aI774
aI775
aI772
aI774
aI774
aI772
aI774
aI772
aI774
aI773
aI773
aI775
aI775
aI777
aI774
aI771
aI773
aI773
aI773
aI774
aI774
aI774
aI775
aI771
aI774
aI775
aI771
aI775
aI775
aI774
aI776
aI773
aI776
aI775
aI774
aI774
aI775
aI775
aI775
aI775
aI773
aI775
aI772
aI772
aI776
aI775
aI775
aI774
aI776
aI772
aI774
aI771
aI775
aI774
aI774
aI775
aI777
aI772
aI776
aI776
aI777
aI771
aI771
aI775
aI776
aI775
aI773
aI774
aI774
aI775
aI772
aI777
aI771
aI777
aI775
aI777
aI775
aI773
aI777
aI774
aI775
aI776
aI772
aI773
aI772
aI772
aI774
aI775
aI773
as.