(lp0
(ccollections
defaultdict
p1
(c__builtin__
list
p2
tp3
Rp4
S'a'
p5
(lp6
I336
aI339
aI337
aI339
aI338
aI339
aI340
aI339
aI339
aI339
aI338
aI340
aI339
aI339
aI338
aI339
aI338
aI339
aI339
aI337
aI338
aI339
aI338
aI339
aI338
aI338
aI339
aI339
aI340
aI339
aI339
aI338
aI338
aI339
aI337
aI339
aI339
aI339
aI338
aI339
aI339
aI337
aI339
aI338
aI339
aI338
aI338
aI340
aI339
aI339
aI339
aI338
aI338
aI339
aI337
aI339
aI339
aI339
aI339
aI338
aI340
aI339
aI339
aI339
aI339
aI339
aI339
aI339
aI339
aI338
aI338
aI339
aI338
aI339
aI337
aI339
aI339
aI338
aI338
aI339
aI338
aI338
aI339
aI338
aI339
aI339
aI339
aI338
aI339
aI339
aI339
aI339
aI339
aI338
aI339
aI339
aI337
aI338
aI338
aI338
aI339
aI338
aI338
aI339
aI339
aI338
aI338
aI339
aI338
aI337
aI339
aI338
aI338
aI338
aI337
aI337
aI338
aI337
aI339
aI337
aI339
aI339
aI339
aI340
aI339
aI340
aI339
aI340
aI339
aI340
aI338
aI339
aI337
aI337
aI337
aI337
aI337
aI338
aI338
aI338
aI337
aI336
aI339
aI340
aI338
aI339
aI340
aI340
aI339
aI339
aI339
aI338
aI339
aI339
aI337
aI337
aI337
aI337
aI338
aI337
aI337
aI337
aI338
aI337
aI339
aI339
aI339
aI339
aI339
aI339
aI339
aI339
aI339
aI338
aI339
aI338
aI339
aI337
aI338
aI339
aI338
aI337
aI339
aI338
aI338
aI337
aI339
aI339
aI338
aI339
aI339
aI340
aI339
aI339
aI339
aI339
aI338
aI338
aI338
aI338
aI339
aI338
aI337
aI338
aI338
aI338
aI338
aI339
aI339
aI339
aI338
aI339
aI339
aI339
aI339
aI339
aI339
aI337
aI337
aI339
aI338
aI339
aI339
aI339
aI339
aI338
aI337
aI338
aI338
aI339
aI338
aI339
aI339
aI337
aI339
aI339
aI339
aI338
aI338
aI339
aI337
aI339
aI339
aI338
aI339
aI337
aI339
aI338
aI337
aI339
aI339
aI339
aI339
aI339
aI339
aI340
aI339
aI339
aI338
aI339
aI339
aI339
aI338
aI338
aI340
aI338
aI339
asS'c'
p7
(lp8
I495
aI492
aI491
aI501
aI492
aI492
aI506
aI492
aI492
aI502
aI493
aI492
aI496
aI492
aI492
aI507
aI492
aI491
aI504
aI492
aI492
aI497
aI492
aI492
aI492
aI494
aI492
aI491
aI498
aI492
aI492
aI506
aI492
aI492
aI502
aI492
aI492
aI495
aI493
aI492
aI492
aI495
aI492
aI492
aI502
aI492
aI492
aI505
aI492
aI491
aI500
aI492
aI492
aI492
aI494
aI492
aI492
aI497
aI492
aI492
aI507
aI492
aI492
aI504
aI492
aI491
aI495
aI493
aI492
aI492
aI494
aI491
aI491
aI500
aI492
aI492
aI505
aI492
aI491
aI502
aI492
aI492
aI492
aI493
aI492
aI492
aI495
aI491
aI491
aI507
aI492
aI491
aI505
aI492
aI491
aI498
aI492
aI492
aI492
aI494
aI492
aI492
aI497
aI491
aI491
aI507
aI492
aI492
aI503
aI492
aI492
aI495
aI493
aI492
aI491
aI495
aI492
aI492
aI502
aI492
aI492
aI506
aI492
aI491
aI500
aI492
aI491
aI492
aI493
aI492
aI491
aI497
aI491
aI492
aI507
aI492
aI492
aI504
aI492
aI491
aI497
aI493
aI492
aI492
aI494
aI492
aI491
aI497
aI492
aI492
aI507
aI492
aI492
aI501
aI492
aI492
aI494
aI493
aI492
aI492
aI495
aI492
aI491
aI503
aI492
aI491
aI504
aI492
aI492
aI500
aI492
aI492
aI491
aI494
aI492
aI492
aI497
aI492
aI491
aI507
aI492
aI491
aI504
aI492
aI492
aI496
aI493
aI491
aI491
aI495
aI492
aI492
aI500
aI492
aI492
aI506
aI492
aI492
aI500
aI492
aI492
aI492
aI493
aI492
aI492
aI496
aI491
aI492
aI507
aI492
aI491
aI504
aI492
aI492
aI499
aI492
aI492
aI492
aI494
aI492
aI492
aI498
aI492
aI492
aI507
aI492
aI492
aI502
aI492
aI491
aI494
aI492
aI492
aI495
aI492
aI492
aI501
aI492
aI492
aI505
aI492
aI492
aI500
aI492
aI492
aI491
aI494
aI492
aI491
aI496
aI492
aI491
aI506
aI492
aI492
aI504
aI492
aI491
aI497
aI492
aI491
aI491
aI494
aI491
aI499
aI492
aI491
asS'b'
p9
(lp10
I420
aI423
aI422
aI417
aI424
aI423
aI419
aI424
aI423
aI422
aI423
aI422
aI420
aI423
aI423
aI417
aI423
aI423
aI420
aI423
aI423
aI423
aI423
aI423
aI422
aI421
aI424
aI423
aI419
aI423
aI423
aI418
aI423
aI423
aI421
aI423
aI423
aI423
aI423
aI423
aI423
aI419
aI423
aI423
aI417
aI422
aI423
aI419
aI424
aI423
aI421
aI423
aI423
aI422
aI422
aI423
aI423
aI419
aI423
aI422
aI419
aI423
aI423
aI420
aI423
aI423
aI422
aI423
aI423
aI423
aI420
aI424
aI422
aI417
aI423
aI422
aI419
aI423
aI423
aI421
aI424
aI423
aI423
aI423
aI423
aI423
aI420
aI423
aI423
aI418
aI423
aI422
aI419
aI423
aI422
aI423
aI423
aI423
aI422
aI422
aI423
aI423
aI419
aI423
aI422
aI418
aI424
aI423
aI422
aI424
aI423
aI423
aI422
aI423
aI422
aI420
aI423
aI423
aI417
aI423
aI423
aI419
aI423
aI423
aI421
aI423
aI423
aI422
aI422
aI424
aI423
aI419
aI423
aI422
aI417
aI423
aI423
aI420
aI423
aI423
aI423
aI423
aI423
aI423
aI421
aI423
aI422
aI419
aI423
aI422
aI419
aI423
aI423
aI420
aI423
aI423
aI422
aI423
aI423
aI423
aI421
aI423
aI424
aI417
aI423
aI423
aI419
aI424
aI423
aI422
aI423
aI423
aI422
aI421
aI422
aI422
aI419
aI423
aI423
aI418
aI423
aI423
aI420
aI424
aI423
aI422
aI423
aI422
aI423
aI421
aI423
aI423
aI417
aI423
aI422
aI419
aI424
aI423
aI421
aI423
aI423
aI423
aI422
aI423
aI423
aI420
aI423
aI422
aI417
aI422
aI422
aI420
aI423
aI423
aI422
aI423
aI422
aI422
aI421
aI423
aI423
aI419
aI423
aI422
aI418
aI423
aI422
aI420
aI424
aI423
aI423
aI423
aI423
aI421
aI423
aI422
aI417
aI423
aI422
aI418
aI423
aI423
aI422
aI423
aI422
aI423
aI422
aI423
aI423
aI419
aI423
aI423
aI417
aI424
aI423
aI420
aI423
aI422
aI423
aI423
aI423
aI423
aI422
aI423
aI418
aI423
aI423
asS't'
p11
(lp12
I55678
aI3604
aI17452
aI31292
aI45132
aI58972
aI7276
aI21116
aI34956
aI48796
aI62636
aI12034
aI37760
aI52678
aI600
aI14448
aI28288
aI42128
aI55968
aI4272
aI18112
aI31952
aI45792
aI59632
aI9038
aI22476
aI36316
aI50156
aI63996
aI12300
aI26140
aI39988
aI53836
aI2160
aI16008
aI30930
aI44368
aI58208
aI6540
aI20380
aI34220
aI48060
aI61900
aI10204
aI24044
aI37884
aI52801
aI704
aI14552
aI28400
aI42240
aI56080
aI4384
aI18224
aI32064
aI45904
aI59744
aI9150
aI22588
aI36428
aI50268
aI64108
aI12436
aI26276
aI40116
aI53956
aI2260
aI16100
aI31017
aI44456
aI58296
aI6608
aI20456
aI34296
aI48136
aI61976
aI10280
aI24120
aI37960
aI52877
aI780
aI14620
aI28468
aI42316
aI56156
aI4460
aI18300
aI32140
aI45980
aI59820
aI9201
aI22640
aI36480
aI50328
aI64176
aI12508
aI26352
aI40192
aI54032
aI2336
aI16176
aI31093
aI44532
aI58372
aI6700
aI20540
aI34380
aI48220
aI62060
aI10364
aI24212
aI38060
aI52982
aI880
aI14720
aI28560
aI42400
aI56240
aI4544
aI18384
aI32224
aI46072
aI59920
aI9306
aI22744
aI36584
aI50424
aI64264
aI12592
aI26432
aI40272
aI54112
aI2416
aI16256
aI31173
aI44612
aI58452
aI6764
aI20612
aI34452
aI48292
aI62132
aI10436
aI24276
aI38116
aI53033
aI936
aI14776
aI28624
aI42472
aI56312
aI4616
aI18456
aI32296
aI46136
aI59976
aI9357
aI22796
aI36636
aI50484
aI64332
aI12664
aI26508
aI40348
aI54188
aI2492
aI16332
aI31249
aI44688
aI58528
aI6832
aI20680
aI34528
aI48368
aI62208
aI10512
aI24352
aI38192
aI53109
aI1012
aI14852
aI28692
aI42540
aI56388
aI4692
aI18532
aI32372
aI46212
aI60052
aI9433
aI22872
aI36712
aI50552
aI64400
aI12708
aI26552
aI40392
aI54232
aI2536
aI16376
aI31293
aI44732
aI58572
aI6876
aI20724
aI34572
aI48412
aI62252
aI10556
aI24396
aI38236
aI53153
aI1056
aI14896
aI28736
aI42584
aI56432
aI4736
aI18576
aI32416
aI46256
aI60096
aI9477
aI22916
aI36756
aI50596
aI64444
aI12752
aI26596
aI40436
aI54276
aI16420
aI31337
aI44776
aI58616
aI6920
aI20768
aI34616
aI48456
aI62296
aI10600
aI24440
aI38280
aI53197
aI1100
aI14940
aI28780
aI42628
aI56476
aI4780
aI18620
aI32460
aI46300
aI60140
aI9521
aI22960
aI36800
aI50640
aI64488
aI12796
aI26640
aI40480
aI54320
aI16464
aI31381
aI44820
aI58660
asS'y'
p13
(lp14
I480
aI482
aI480
aI478
aI476
aI479
aI479
aI480
aI478
aI476
aI479
aI479
aI500
aI500
aI501
aI499
aI502
aI498
aI500
aI499
aI502
aI503
aI502
aI498
aI504
aI497
aI505
aI505
aI502
aI499
aI500
aI503
aI499
aI503
aI503
aI499
aI501
aI498
aI503
aI500
aI499
aI503
aI500
aI499
aI504
aI504
aI503
aI503
aI503
aI500
aI500
aI499
aI500
aI501
aI501
aI500
aI500
aI500
aI504
aI502
aI500
aI503
aI498
aI504
aI499
aI498
aI502
aI505
aI503
aI499
aI503
aI502
aI503
aI500
aI502
aI500
aI500
aI502
aI499
aI500
aI502
aI503
aI500
aI499
aI501
aI501
aI504
aI500
aI503
aI501
aI500
aI503
aI504
aI502
aI503
aI502
aI500
aI503
aI499
aI500
aI502
aI503
aI499
aI502
aI501
aI502
aI502
aI498
aI499
aI499
aI499
aI502
aI506
aI502
aI500
aI501
aI499
aI500
aI503
aI503
aI503
aI500
aI501
aI502
aI503
aI498
aI499
aI503
aI500
aI500
aI499
aI498
aI503
aI499
aI502
aI499
aI498
aI504
aI502
aI500
aI506
aI503
aI507
aI503
aI501
aI503
aI501
aI503
aI499
aI500
aI501
aI499
aI503
aI501
aI501
aI499
aI502
aI501
aI504
aI502
aI499
aI503
aI504
aI502
aI503
aI503
aI502
aI498
aI502
aI501
aI500
aI499
aI502
aI502
aI496
aI497
aI499
aI499
aI499
aI501
aI498
aI502
aI501
aI505
aI499
aI502
aI499
aI499
aI502
aI503
aI500
aI499
aI501
aI501
aI497
aI501
aI499
aI503
aI499
aI501
aI503
aI504
aI499
aI502
aI503
aI502
aI499
aI499
aI502
aI500
aI502
aI504
aI499
aI502
aI502
aI502
aI500
aI504
aI497
aI500
aI502
aI501
aI501
aI501
aI502
aI499
aI498
aI502
aI502
aI500
aI504
aI503
aI502
aI502
aI503
aI502
aI502
aI500
aI504
aI500
aI500
aI500
aI501
aI500
aI499
aI500
aI504
aI499
aI501
aI501
aI504
aI502
aI501
aI503
aI502
aI500
aI499
aI502
aI504
aI504
aI502
aI501
aI499
aI498
aI502
aI501
aI501
asS'x'
p15
(lp16
I519
aI517
aI518
aI515
aI516
aI517
aI520
aI519
aI515
aI519
aI515
aI517
aI517
aI515
aI519
aI517
aI516
aI517
aI518
aI513
aI516
aI516
aI519
aI516
aI518
aI515
aI517
aI516
aI518
aI516
aI517
aI516
aI516
aI517
aI515
aI513
aI518
aI515
aI516
aI518
aI513
aI519
aI513
aI516
aI517
aI516
aI515
aI518
aI518
aI518
aI518
aI519
aI515
aI519
aI515
aI519
aI519
aI516
aI519
aI519
aI516
aI515
aI517
aI517
aI519
aI517
aI520
aI512
aI515
aI518
aI519
aI516
aI516
aI519
aI516
aI517
aI519
aI518
aI517
aI519
aI517
aI519
aI518
aI516
aI519
aI519
aI519
aI516
aI518
aI518
aI518
aI519
aI518
aI513
aI520
aI517
aI516
aI517
aI518
aI518
aI519
aI518
aI515
aI516
aI518
aI517
aI519
aI523
aI518
aI515
aI515
aI519
aI514
aI515
aI518
aI511
aI515
aI518
aI513
aI516
aI518
aI518
aI519
aI519
aI517
aI516
aI516
aI519
aI518
aI514
aI518
aI518
aI519
aI515
aI515
aI515
aI512
aI516
aI516
aI519
aI519
aI519
aI519
aI521
aI516
aI517
aI516
aI519
aI516
aI518
aI519
aI518
aI514
aI518
aI514
aI517
aI516
aI515
aI517
aI516
aI517
aI516
aI514
aI518
aI516
aI515
aI515
aI516
aI517
aI515
aI515
aI515
aI518
aI516
aI515
aI518
aI515
aI516
aI517
aI516
aI515
aI515
aI518
aI517
aI515
aI514
aI519
aI516
aI515
aI518
aI516
aI516
aI516
aI519
aI515
aI518
aI516
aI515
aI518
aI516
aI516
aI519
aI519
aI520
aI518
aI518
aI518
aI519
aI518
aI516
aI518
aI515
aI515
aI514
aI515
aI515
aI516
aI518
aI516
aI513
aI516
aI515
aI515
aI515
aI517
aI521
aI519
aI518
aI519
aI519
aI515
aI519
aI517
aI518
aI518
aI514
aI515
aI513
aI516
aI516
aI519
aI513
aI518
aI520
aI514
aI518
aI519
aI521
aI519
aI515
aI516
aI518
aI514
aI516
aI518
aI519
aI518
aI515
aI519
aI515
aI515
aI517
aI517
aI514
aI514
aI515
aI519
asS'z'
p17
(lp18
I777
aI772
aI774
aI775
aI775
aI771
aI775
aI773
aI773
aI777
aI774
aI776
aI774
aI773
aI774
aI772
aI775
aI774
aI772
aI774
aI772
aI772
aI774
aI775
aI774
aI773
aI774
aI774
aI774
aI772
aI774
aI772
aI770
aI774
aI776
aI773
aI773
aI772
aI771
aI776
aI775
aI779
aI772
aI774
aI771
aI773
aI774
aI773
aI774
aI773
aI775
aI772
aI773
aI773
aI775
aI774
aI773
aI773
aI774
aI772
aI773
aI772
aI774
aI774
aI775
aI776
aI773
aI771
aI773
aI776
aI770
aI772
aI773
aI773
aI772
aI772
aI773
aI775
aI775
aI772
aI775
aI771
aI777
aI774
aI774
aI772
aI774
aI772
aI774
aI774
aI774
aI773
aI770
aI771
aI774
aI773
aI774
aI775
aI774
aI773
aI769
aI775
aI772
aI774
aI773
aI773
aI773
aI772
aI775
aI771
aI776
aI775
aI771
aI776
aI771
aI775
aI771
aI775
aI777
aI774
aI773
aI776
aI772
aI772
aI776
aI775
aI771
aI774
aI775
aI776
aI772
aI773
aI775
aI772
aI774
aI779
aI772
aI774
aI774
aI769
aI771
aI772
aI773
aI769
aI771
aI775
aI771
aI773
aI775
aI771
aI774
aI774
aI775
aI775
aI775
aI775
aI775
aI775
aI772
aI771
aI771
aI772
aI770
aI772
aI773
aI769
aI772
aI771
aI774
aI774
aI774
aI772
aI775
aI775
aI775
aI777
aI775
aI776
aI775
aI775
aI777
aI775
aI774
aI772
aI775
aI775
aI773
aI771
aI774
aI772
aI775
aI772
aI777
aI773
aI774
aI775
aI774
aI774
aI774
aI772
aI773
aI775
aI775
aI769
aI770
aI771
aI774
aI770
aI772
aI776
aI773
aI772
aI775
aI774
aI774
aI775
aI773
aI775
aI776
aI771
aI773
aI773
aI774
aI774
aI771
aI771
aI774
aI774
aI773
aI772
aI772
aI774
aI772
aI770
aI775
aI773
aI770
aI773
aI772
aI773
aI774
aI773
aI773
aI774
aI775
aI774
aI776
aI772
aI774
aI775
aI774
aI775
aI770
aI771
aI775
aI774
aI774
aI773
aI775
aI775
aI772
aI775
aI772
aI774
aI772
aI774
aI774
asS'T'
p19
(lp20
I23880
aI23881
aI23881
aI23881
aI23881
aI23881
aI23882
aI23882
aI23882
aI23882
aI23882
aI23883
aI26442
aI26442
aI26443
aI26443
aI26443
aI26443
aI26443
aI26444
aI26444
aI26444
aI26444
aI26444
aI26445
aI26445
aI26445
aI26445
aI26445
aI26446
aI26446
aI26446
aI26446
aI26447
aI26447
aI26447
aI26447
aI26447
aI26448
aI26448
aI26448
aI26448
aI26448
aI26449
aI26449
aI26449
aI26449
aI26450
aI26450
aI26450
aI26450
aI26450
aI26451
aI26451
aI26451
aI26451
aI26451
aI26452
aI26452
aI26452
aI26452
aI26452
aI26453
aI26453
aI26453
aI26453
aI26454
aI26454
aI26454
aI26454
aI26454
aI26455
aI26455
aI26455
aI26455
aI26455
aI26456
aI26456
aI26456
aI26456
aI26457
aI26457
aI26457
aI26457
aI26457
aI26458
aI26458
aI26458
aI26458
aI26458
aI26459
aI26459
aI26459
aI26459
aI26459
aI26460
aI26460
aI26460
aI26460
aI26461
aI26461
aI26461
aI26461
aI26461
aI26462
aI26462
aI26462
aI26462
aI26462
aI26463
aI26463
aI26463
aI26463
aI26464
aI26464
aI26464
aI26464
aI26464
aI26465
aI26465
aI26465
aI26465
aI26465
aI26466
aI26466
aI26466
aI26466
aI26466
aI26467
aI26467
aI26467
aI26467
aI26468
aI26468
aI26468
aI26468
aI26468
aI26469
aI26469
aI26469
aI26469
aI26469
aI26470
aI26470
aI26470
aI26470
aI26471
aI26471
aI26471
aI26471
aI26471
aI26472
aI26472
aI26472
aI26472
aI26472
aI26473
aI26473
aI26473
aI26473
aI26474
aI26474
aI26474
aI26474
aI26474
aI26475
aI26475
aI26475
aI26475
aI26475
aI26476
aI26476
aI26476
aI26476
aI26476
aI26477
aI26477
aI26477
aI26477
aI26478
aI26478
aI26478
aI26478
aI26478
aI26479
aI26479
aI26479
aI26479
aI26479
aI26480
aI26480
aI26480
aI26480
aI26481
aI26481
aI26481
aI26481
aI26481
aI26482
aI26482
aI26482
aI26482
aI26482
aI26483
aI26483
aI26483
aI26483
aI26483
aI26484
aI26484
aI26484
aI26484
aI26485
aI26485
aI26485
aI26485
aI26485
aI26486
aI26486
aI26486
aI26486
aI26486
aI26487
aI26487
aI26487
aI26487
aI26488
aI26488
aI26488
aI26488
aI26488
aI26489
aI26489
aI26489
aI26489
aI26490
aI26490
aI26490
aI26490
aI26490
aI26491
aI26491
aI26491
aI26491
aI26492
aI26492
aI26492
aI26492
aI26492
aI26493
aI26493
aI26493
aI26493
aI26493
aI26494
aI26494
aI26494
aI26494
aI26495
aI26495
aI26495
aI26495
aI26495
aI26496
aI26496
aI26496
aI26496
asg1
(g2
tp21
Rp22
g5
(lp23
I338
aI339
aI339
aI339
aI337
aI341
aI339
aI339
aI338
aI338
aI337
aI339
aI337
aI337
aI338
aI338
aI340
aI339
aI338
aI340
aI339
aI339
aI338
aI339
aI339
aI338
aI337
aI338
aI338
aI336
aI339
aI337
aI339
aI339
aI338
aI339
aI339
aI339
aI338
aI338
aI340
aI339
aI337
aI339
aI339
aI340
aI339
aI338
aI339
aI337
aI337
aI339
aI337
aI338
aI337
aI339
aI339
aI338
aI339
aI339
aI340
aI340
aI339
aI339
aI340
aI339
aI339
aI339
aI338
aI338
aI338
aI337
aI338
aI338
aI340
aI339
aI339
aI339
aI339
aI338
aI339
aI337
aI340
aI338
aI338
aI339
aI339
aI337
aI338
aI338
aI339
aI339
aI337
aI338
aI338
aI339
aI338
aI337
aI338
aI338
aI337
aI339
aI339
aI337
aI339
aI339
aI339
aI339
aI337
aI340
aI338
aI339
aI338
aI338
aI338
aI339
aI338
aI339
aI339
aI339
aI339
aI339
aI339
aI339
aI339
aI339
aI338
aI338
aI339
aI339
aI339
aI339
aI337
aI338
aI338
aI338
aI338
aI338
aI340
aI339
aI339
aI339
aI339
aI335
aI335
aI341
aI347
aI334
aI335
aI340
aI343
aI335
aI335
aI337
aI344
aI337
aI338
aI342
aI339
aI335
aI338
aI340
aI339
aI337
aI338
aI340
aI340
aI337
aI337
aI340
aI338
aI336
aI340
aI338
aI337
aI337
aI339
aI339
aI338
aI337
aI339
aI339
aI338
aI336
aI339
aI339
aI339
aI337
aI339
aI339
aI339
aI336
aI338
aI338
aI339
aI338
aI338
aI338
aI339
aI338
aI336
aI338
aI341
aI338
aI337
aI339
aI340
aI336
aI337
aI339
aI339
aI338
aI337
aI340
aI339
aI339
aI338
aI338
aI338
aI337
aI337
aI338
aI338
aI339
aI338
aI338
aI339
aI339
aI339
aI339
aI339
aI339
aI338
aI337
aI339
aI337
aI337
aI338
aI340
aI338
aI339
aI337
aI339
aI338
aI338
aI338
aI338
aI339
aI338
aI337
aI339
aI339
aI339
aI339
aI338
aI339
aI337
aI337
aI339
aI339
aI339
aI339
aI339
aI338
aI339
aI338
aI338
aI338
aI339
aI339
aI339
aI338
aI339
aI338
aI337
aI337
aI339
aI339
aI339
aI339
asg7
(lp24
I492
aI492
aI502
aI492
aI492
aI504
aI492
aI492
aI499
aI495
aI493
aI492
aI492
aI495
aI492
aI492
aI501
aI491
aI491
aI505
aI492
aI492
aI501
aI492
aI492
aI492
aI494
aI491
aI492
aI496
aI491
aI491
aI507
aI492
aI492
aI504
aI492
aI491
aI497
aI493
aI492
aI492
aI494
aI492
aI492
aI497
aI492
aI492
aI506
aI492
aI491
aI503
aI492
aI492
aI494
aI494
aI492
aI492
aI495
aI492
aI492
aI502
aI492
aI492
aI505
aI492
aI492
aI500
aI492
aI492
aI491
aI494
aI492
aI492
aI497
aI492
aI492
aI507
aI492
aI492
aI504
aI492
aI492
aI497
aI493
aI492
aI492
aI494
aI491
aI491
aI499
aI492
aI491
aI506
aI492
aI492
aI502
aI492
aI492
aI492
aI493
aI492
aI492
aI496
aI492
aI491
aI503
aI492
aI492
aI505
aI492
aI492
aI498
aI493
aI492
aI492
aI494
aI491
aI491
aI497
aI492
aI491
aI507
aI492
aI492
aI502
aI492
aI492
aI497
aI493
aI492
aI491
aI495
aI491
aI492
aI501
aI492
aI492
aI505
aI492
aI492
aI502
aI492
aI507
aI491
aI492
aI505
aI492
aI491
aI499
aI493
aI492
aI492
aI494
aI492
aI492
aI492
aI492
aI507
aI492
aI492
aI503
aI492
aI492
aI494
aI494
aI492
aI492
aI494
aI492
aI502
aI492
aI492
aI505
aI491
aI494
aI492
aI491
aI496
aI492
aI492
aI507
aI492
aI490
aI504
aI491
aI492
aI497
aI492
aI492
aI492
aI494
aI492
aI491
aI499
aI492
aI491
aI506
aI492
aI491
aI502
aI492
aI492
aI492
aI493
aI492
aI491
aI495
aI492
aI492
aI503
aI492
aI491
aI505
aI492
aI491
aI499
aI492
aI492
aI492
aI494
aI491
aI492
aI498
aI492
aI492
aI507
aI492
aI491
aI504
aI492
aI491
aI496
aI493
aI491
aI492
aI495
aI492
aI492
aI500
aI492
aI492
aI506
aI492
aI491
aI502
aI492
aI492
aI491
aI493
aI492
aI491
aI496
aI492
aI492
aI507
aI491
aI491
aI504
aI492
aI491
aI499
aI493
aI491
aI491
aI494
aI491
aI491
aI498
aI492
aI491
aI506
aI492
aI492
aI503
aI492
aI492
aI494
aI493
aI492
asg9
(lp25
I423
aI423
aI416
aI423
aI423
aI419
aI424
aI423
aI422
aI423
aI422
aI423
aI423
aI422
aI423
aI423
aI417
aI423
aI423
aI417
aI423
aI423
aI421
aI424
aI423
aI423
aI423
aI423
aI422
aI419
aI423
aI423
aI418
aI423
aI423
aI419
aI423
aI422
aI423
aI423
aI423
aI422
aI422
aI423
aI422
aI418
aI423
aI422
aI418
aI423
aI423
aI420
aI423
aI423
aI422
aI423
aI423
aI423
aI420
aI422
aI422
aI417
aI423
aI423
aI419
aI423
aI423
aI420
aI423
aI422
aI423
aI421
aI423
aI423
aI419
aI423
aI423
aI417
aI423
aI423
aI420
aI423
aI423
aI422
aI423
aI423
aI423
aI422
aI423
aI423
aI417
aI422
aI422
aI418
aI424
aI423
aI420
aI424
aI423
aI422
aI423
aI423
aI423
aI420
aI423
aI423
aI416
aI423
aI423
aI419
aI423
aI423
aI421
aI423
aI423
aI423
aI422
aI423
aI423
aI418
aI423
aI423
aI417
aI423
aI423
aI420
aI423
aI423
aI422
aI423
aI423
aI422
aI420
aI423
aI423
aI417
aI423
aI423
aI419
aI423
aI423
aI422
aI423
aI417
aI424
aI423
aI421
aI422
aI423
aI423
aI423
aI423
aI422
aI420
aI423
aI423
aI423
aI423
aI419
aI423
aI423
aI421
aI424
aI423
aI423
aI423
aI423
aI422
aI421
aI422
aI416
aI423
aI423
aI418
aI422
aI421
aI423
aI423
aI417
aI422
aI423
aI417
aI423
aI423
aI419
aI423
aI423
aI422
aI423
aI422
aI423
aI421
aI422
aI422
aI418
aI423
aI422
aI417
aI423
aI422
aI420
aI423
aI422
aI423
aI422
aI423
aI422
aI420
aI423
aI422
aI418
aI423
aI423
aI420
aI422
aI423
aI421
aI423
aI423
aI422
aI421
aI423
aI423
aI418
aI422
aI423
aI419
aI423
aI423
aI420
aI423
aI423
aI423
aI422
aI422
aI422
aI420
aI423
aI423
aI417
aI423
aI423
aI417
aI423
aI422
aI421
aI423
aI422
aI422
aI423
aI423
aI422
aI420
aI423
aI422
aI417
aI423
aI421
aI419
aI423
aI424
aI421
aI423
aI423
aI423
aI422
aI422
aI422
aI419
aI423
aI423
aI419
aI423
aI422
aI420
aI423
aI422
aI422
aI422
aI423
asg11
(lp26
I45092
aI58932
aI7236
aI21076
aI34916
aI48756
aI62604
aI10916
aI24756
aI50988
aI64828
aI13132
aI26972
aI40812
aI54660
aI2972
aI16812
aI31730
aI45168
aI59008
aI7312
aI21152
aI34992
aI48832
aI62672
aI10984
aI24832
aI38672
aI53590
aI1488
aI15328
aI29168
aI43008
aI56848
aI5180
aI19020
aI32860
aI46700
aI60540
aI9921
aI23360
aI37200
aI51040
aI64888
aI13200
aI27040
aI40880
aI54720
aI3024
aI16864
aI31781
aI45220
aI59060
aI7364
aI21212
aI35060
aI48900
aI62740
aI11044
aI24884
aI38724
aI53641
aI1544
aI15384
aI29224
aI43072
aI56920
aI5248
aI19092
aI32932
aI46772
aI60612
aI9999
aI23436
aI37276
aI51116
aI64956
aI13256
aI27096
aI40944
aI54792
aI3096
aI16936
aI31859
aI45296
aI59136
aI7440
aI21280
aI35128
aI48976
aI62816
aI11120
aI24960
aI38800
aI53719
aI1620
aI15460
aI29300
aI43140
aI56988
aI5300
aI19140
aI32980
aI46820
aI60660
aI10043
aI23480
aI37320
aI51160
aI65000
aI13300
aI27140
aI40988
aI54836
aI3140
aI16980
aI31903
aI45340
aI59180
aI7484
aI21324
aI35172
aI49020
aI62860
aI11164
aI25004
aI38844
aI53763
aI1664
aI15504
aI29344
aI43184
aI57032
aI5344
aI19184
aI33024
aI46864
aI60704
aI10087
aI23524
aI37364
aI51204
aI65044
aI3180
aI17020
aI30860
aI45781
aI59220
aI7524
aI21364
aI35212
aI49060
aI62900
aI11204
aI25044
aI38884
aI2105
aI15544
aI29384
aI43224
aI57072
aI5384
aI19224
aI33064
aI46904
aI60744
aI9048
aI23965
aI37404
aI51244
aI13384
aI27224
aI41072
aI54920
aI7568
aI21408
aI35256
aI49104
aI62944
aI11248
aI25088
aI38928
aI52768
aI2149
aI15588
aI29428
aI43268
aI57116
aI5428
aI19268
aI33108
aI46948
aI60788
aI9092
aI24009
aI37448
aI51288
aI65128
aI13428
aI27268
aI41116
aI54964
aI3268
aI17108
aI30948
aI45869
aI59308
aI7612
aI21452
aI35300
aI49148
aI62988
aI11292
aI25132
aI38972
aI52812
aI2193
aI15632
aI29472
aI43312
aI57160
aI5472
aI19312
aI33152
aI46992
aI60832
aI9136
aI24053
aI37492
aI51332
aI65172
aI13472
aI27312
aI41160
aI55008
aI3332
aI17180
aI31020
aI45942
aI59380
aI7684
aI21524
aI35364
aI49204
aI63044
aI11356
aI25204
aI39044
aI52884
aI2271
aI15708
aI29548
aI43388
aI57228
aI5540
aI19388
aI33228
aI47068
aI60908
aI9212
aI24131
aI37568
aI51408
aI65248
aI13552
aI27400
aI41248
aI55088
aI3412
aI17260
aI31100
aI46018
aI59456
aI7760
aI21600
aI35440
aI49280
aI63120
aI11424
aI25272
asg13
(lp27
I501
aI501
aI502
aI497
aI501
aI502
aI504
aI500
aI501
aI502
aI499
aI501
aI502
aI504
aI499
aI504
aI500
aI504
aI503
aI501
aI499
aI499
aI501
aI497
aI500
aI502
aI502
aI500
aI501
aI501
aI500
aI500
aI507
aI497
aI500
aI502
aI501
aI500
aI502
aI500
aI502
aI500
aI503
aI499
aI502
aI504
aI502
aI502
aI501
aI502
aI500
aI504
aI502
aI504
aI502
aI500
aI499
aI505
aI497
aI500
aI499
aI503
aI498
aI499
aI499
aI502
aI499
aI499
aI502
aI502
aI502
aI500
aI501
aI502
aI499
aI500
aI502
aI499
aI503
aI502
aI500
aI499
aI503
aI501
aI502
aI500
aI499
aI500
aI496
aI500
aI500
aI504
aI501
aI503
aI500
aI499
aI504
aI502
aI502
aI499
aI502
aI502
aI502
aI502
aI504
aI499
aI501
aI503
aI499
aI502
aI500
aI500
aI500
aI503
aI502
aI504
aI503
aI500
aI500
aI502
aI499
aI500
aI500
aI500
aI499
aI501
aI499
aI501
aI501
aI499
aI504
aI503
aI499
aI504
aI505
aI502
aI499
aI503
aI500
aI500
aI500
aI504
aI500
aI457
aI467
aI463
aI445
aI459
aI466
aI459
aI449
aI454
aI461
aI465
aI452
aI450
aI465
aI455
aI452
aI462
aI465
aI454
aI455
aI460
aI464
aI455
aI455
aI458
aI458
aI460
aI454
aI462
aI461
aI452
aI457
aI459
aI457
aI455
aI458
aI458
aI460
aI457
aI456
aI456
aI459
aI455
aI457
aI457
aI457
aI454
aI457
aI457
aI460
aI455
aI456
aI459
aI457
aI459
aI457
aI457
aI459
aI459
aI456
aI455
aI458
aI456
aI455
aI456
aI462
aI458
aI455
aI457
aI457
aI460
aI458
aI457
aI459
aI461
aI454
aI456
aI455
aI455
aI458
aI455
aI457
aI460
aI457
aI459
aI457
aI459
aI456
aI455
aI456
aI461
aI456
aI459
aI457
aI458
aI457
aI459
aI460
aI462
aI459
aI458
aI459
aI459
aI461
aI456
aI456
aI458
aI458
aI459
aI456
aI457
aI459
aI455
aI455
aI455
aI455
aI458
aI457
aI457
aI455
aI459
aI455
aI455
aI457
aI459
aI460
aI457
aI456
aI459
aI458
aI455
aI455
aI459
aI457
aI459
aI460
aI453
asg15
(lp28
I518
aI520
aI518
aI515
aI517
aI518
aI517
aI517
aI515
aI517
aI515
aI518
aI517
aI518
aI520
aI516
aI515
aI518
aI519
aI519
aI519
aI517
aI516
aI518
aI519
aI518
aI517
aI516
aI514
aI515
aI521
aI517
aI516
aI517
aI516
aI518
aI516
aI518
aI515
aI514
aI517
aI517
aI512
aI521
aI513
aI517
aI518
aI516
aI519
aI518
aI518
aI516
aI516
aI515
aI517
aI519
aI516
aI518
aI517
aI518
aI516
aI514
aI515
aI518
aI515
aI516
aI517
aI515
aI518
aI516
aI520
aI518
aI519
aI519
aI513
aI518
aI516
aI518
aI512
aI516
aI518
aI514
aI519
aI516
aI517
aI516
aI516
aI519
aI520
aI516
aI519
aI513
aI517
aI519
aI519
aI518
aI516
aI515
aI519
aI517
aI519
aI515
aI518
aI516
aI517
aI520
aI519
aI512
aI520
aI515
aI514
aI516
aI516
aI517
aI517
aI519
aI512
aI516
aI519
aI516
aI516
aI518
aI516
aI516
aI524
aI515
aI519
aI514
aI518
aI516
aI517
aI517
aI517
aI519
aI519
aI520
aI518
aI513
aI519
aI517
aI515
aI520
aI516
aI512
aI516
aI516
aI515
aI518
aI519
aI521
aI514
aI518
aI518
aI516
aI517
aI519
aI515
aI513
aI516
aI515
aI518
aI518
aI518
aI516
aI514
aI518
aI519
aI512
aI518
aI515
aI516
aI516
aI515
aI517
aI514
aI517
aI518
aI517
aI516
aI517
aI519
aI515
aI515
aI517
aI517
aI513
aI515
aI517
aI517
aI518
aI515
aI518
aI519
aI515
aI519
aI517
aI515
aI519
aI518
aI518
aI518
aI515
aI515
aI515
aI519
aI515
aI516
aI513
aI518
aI516
aI518
aI518
aI517
aI514
aI518
aI518
aI515
aI515
aI516
aI516
aI513
aI519
aI519
aI519
aI518
aI518
aI517
aI519
aI519
aI519
aI515
aI519
aI517
aI513
aI515
aI515
aI516
aI513
aI511
aI519
aI518
aI516
aI518
aI513
aI518
aI519
aI515
aI515
aI514
aI515
aI516
aI518
aI514
aI516
aI515
aI516
aI516
aI515
aI517
aI512
aI519
aI513
aI513
aI519
aI516
aI519
aI513
aI515
aI519
aI513
aI515
aI516
aI512
aI516
aI518
aI516
aI517
aI514
aI515
aI518
asg17
(lp29
I770
aI772
aI776
aI773
aI771
aI774
aI771
aI775
aI774
aI772
aI774
aI774
aI775
aI771
aI771
aI771
aI772
aI771
aI774
aI773
aI772
aI772
aI774
aI772
aI776
aI773
aI774
aI775
aI776
aI774
aI773
aI771
aI773
aI773
aI773
aI774
aI774
aI772
aI774
aI772
aI775
aI772
aI774
aI776
aI771
aI774
aI772
aI775
aI773
aI773
aI775
aI773
aI771
aI774
aI769
aI772
aI773
aI774
aI774
aI774
aI773
aI772
aI775
aI774
aI775
aI774
aI775
aI775
aI775
aI774
aI772
aI772
aI774
aI775
aI774
aI775
aI773
aI771
aI771
aI774
aI775
aI772
aI774
aI775
aI772
aI774
aI775
aI770
aI775
aI776
aI773
aI775
aI774
aI775
aI772
aI772
aI777
aI776
aI771
aI777
aI773
aI769
aI772
aI774
aI777
aI776
aI777
aI772
aI775
aI773
aI771
aI775
aI776
aI773
aI773
aI775
aI773
aI775
aI775
aI774
aI772
aI774
aI774
aI773
aI775
aI774
aI775
aI773
aI775
aI769
aI774
aI772
aI775
aI774
aI774
aI774
aI774
aI772
aI775
aI775
aI772
aI774
aI770
aI769
aI771
aI768
aI787
aI775
aI764
aI772
aI782
aI776
aI768
aI767
aI781
aI777
aI765
aI775
aI782
aI769
aI769
aI775
aI774
aI773
aI770
aI773
aI780
aI775
aI769
aI769
aI776
aI764
aI774
aI775
aI774
aI775
aI776
aI772
aI779
aI772
aI770
aI769
aI776
aI773
aI774
aI774
aI775
aI772
aI775
aI773
aI775
aI771
aI769
aI770
aI774
aI776
aI773
aI771
aI774
aI772
aI775
aI774
aI775
aI777
aI771
aI772
aI776
aI776
aI771
aI771
aI775
aI772
aI771
aI774
aI773
aI773
aI775
aI772
aI773
aI774
aI772
aI772
aI772
aI772
aI770
aI772
aI772
aI776
aI776
aI775
aI774
aI775
aI772
aI773
aI774
aI774
aI769
aI773
aI775
aI773
aI773
aI771
aI772
aI776
aI771
aI775
aI775
aI772
aI774
aI773
aI772
aI771
aI772
aI774
aI772
aI771
aI775
aI774
aI772
aI775
aI771
aI771
aI774
aI774
aI772
aI774
aI774
aI774
aI774
aI775
aI774
aI772
aI774
aI774
aI772
aI773
aI773
aI775
aI772
aI771
asg19
(lp30
I26524
aI26524
aI26525
aI26525
aI26525
aI26525
aI26525
aI26526
aI26526
aI26529
aI26530
aI26530
aI26530
aI26530
aI26530
aI26531
aI26531
aI26531
aI26531
aI26531
aI26532
aI26532
aI26532
aI26532
aI26532
aI26533
aI26533
aI26533
aI26533
aI26534
aI26534
aI26534
aI26534
aI26534
aI26535
aI26535
aI26535
aI26535
aI26535
aI26536
aI26536
aI26536
aI26536
aI26537
aI26537
aI26537
aI26537
aI26537
aI26538
aI26538
aI26538
aI26538
aI26538
aI26539
aI26539
aI26539
aI26539
aI26539
aI26540
aI26540
aI26540
aI26540
aI26541
aI26541
aI26541
aI26541
aI26541
aI26542
aI26542
aI26542
aI26542
aI26542
aI26543
aI26543
aI26543
aI26543
aI26544
aI26544
aI26544
aI26544
aI26544
aI26545
aI26545
aI26545
aI26545
aI26545
aI26546
aI26546
aI26546
aI26546
aI26546
aI26547
aI26547
aI26547
aI26547
aI26548
aI26548
aI26548
aI26548
aI26548
aI26549
aI26549
aI26549
aI26549
aI26549
aI26550
aI26550
aI26550
aI26550
aI26551
aI26551
aI26551
aI26551
aI26551
aI26552
aI26552
aI26552
aI26552
aI26552
aI26553
aI26553
aI26553
aI26553
aI26553
aI26554
aI26554
aI26554
aI26554
aI26555
aI26555
aI26555
aI26555
aI26555
aI26556
aI26556
aI26556
aI26556
aI26556
aI26557
aI26557
aI26557
aI26557
aI26558
aI27651
aI27651
aI27651
aI27651
aI27651
aI27652
aI27652
aI27652
aI27652
aI27652
aI27653
aI27653
aI27653
aI27654
aI27654
aI27654
aI27654
aI27654
aI27655
aI27655
aI27655
aI27655
aI27655
aI27656
aI27656
aI27656
aI27656
aI27657
aI27657
aI27657
aI27657
aI27659
aI27659
aI27659
aI27659
aI27659
aI27660
aI27660
aI27660
aI27660
aI27661
aI27661
aI27661
aI27661
aI27661
aI27662
aI27662
aI27662
aI27662
aI27662
aI27663
aI27663
aI27663
aI27663
aI27664
aI27664
aI27664
aI27664
aI27664
aI27665
aI27665
aI27665
aI27665
aI27665
aI27666
aI27666
aI27666
aI27666
aI27666
aI27667
aI27667
aI27667
aI27667
aI27668
aI27668
aI27668
aI27668
aI27668
aI27669
aI27669
aI27669
aI27669
aI27669
aI27670
aI27670
aI27670
aI27670
aI27671
aI27671
aI27671
aI27671
aI27671
aI27672
aI27672
aI27672
aI27672
aI27672
aI27673
aI27673
aI27673
aI27673
aI27673
aI27674
aI27674
aI27674
aI27674
aI27675
aI27675
aI27675
aI27675
aI27675
aI27676
aI27676
aI27676
aI27676
aI27676
aI27677
aI27677
aI27677
aI27677
aI27678
aI27678
aI27678
aI27678
aI27678
aI27679
aI27679
aI27679
aI27679
aI27679
aI27680
aI27680
aI27680
aI27680
aI27680
aI27681
aI27681
asg1
(g2
tp31
Rp32
g5
(lp33
I338
aI338
aI340
aI339
aI337
aI339
aI339
aI338
aI339
aI338
aI339
aI337
aI336
aI339
aI340
aI338
aI339
aI339
aI339
aI338
aI339
aI338
aI338
aI339
aI338
aI338
aI339
aI340
aI337
aI338
aI338
aI339
aI337
aI338
aI339
aI338
aI337
aI339
aI337
aI338
aI338
aI337
aI338
aI337
aI339
aI339
aI339
aI339
aI338
aI339
aI340
aI339
aI338
aI338
aI339
aI338
aI338
aI339
aI339
aI337
aI339
aI338
aI339
aI339
aI339
aI339
aI338
aI338
aI339
aI339
aI339
aI340
aI338
aI337
aI338
aI337
aI339
aI339
aI340
aI337
aI337
aI338
aI338
aI338
aI338
aI337
aI340
aI339
aI339
aI339
aI338
aI339
aI339
aI338
aI339
aI338
aI339
aI339
aI338
aI338
asg7
(lp34
I491
aI491
aI507
aI491
aI492
aI504
aI492
aI492
aI498
aI493
aI491
aI491
aI495
aI492
aI491
aI497
aI492
aI491
aI507
aI491
aI491
aI503
aI492
aI492
aI496
aI493
aI492
aI492
aI495
aI492
aI492
aI502
aI492
aI492
aI507
aI492
aI492
aI502
aI492
aI492
aI492
aI494
aI491
aI492
aI496
aI492
aI491
aI507
aI491
aI492
aI505
aI492
aI492
aI497
aI493
aI492
aI492
aI494
aI492
aI492
aI499
aI492
aI492
aI507
aI492
aI492
aI502
aI492
aI492
aI495
aI493
aI491
aI492
aI495
aI492
aI491
aI503
aI492
aI506
aI492
aI492
aI501
aI492
aI491
aI491
aI494
aI492
aI491
aI497
aI492
aI492
aI507
aI492
aI492
aI504
aI492
aI492
aI496
aI494
aI491
asg9
(lp35
I423
aI423
aI417
aI423
aI422
aI420
aI423
aI423
aI421
aI423
aI423
aI421
aI420
aI423
aI423
aI419
aI423
aI423
aI417
aI423
aI422
aI420
aI423
aI422
aI422
aI423
aI423
aI423
aI421
aI422
aI422
aI418
aI423
aI422
aI419
aI423
aI423
aI422
aI423
aI423
aI423
aI421
aI423
aI423
aI419
aI423
aI422
aI417
aI423
aI422
aI419
aI423
aI423
aI423
aI422
aI423
aI423
aI422
aI423
aI422
aI418
aI423
aI423
aI418
aI423
aI423
aI422
aI424
aI423
aI423
aI423
aI422
aI422
aI420
aI423
aI423
aI417
aI423
aI419
aI423
aI422
aI421
aI423
aI422
aI423
aI421
aI423
aI423
aI418
aI423
aI423
aI417
aI423
aI421
aI420
aI423
aI423
aI422
aI423
aI422
asg11
(lp36
I43804
aI57644
aI5948
aI19788
aI33628
aI47468
aI61316
aI9628
aI24550
aI37988
aI51828
aI152
aI13972
aI27812
aI11216
aI25056
aI38896
aI52744
aI1052
aI14896
aI28736
aI42576
aI56416
aI5817
aI19264
aI33104
aI46944
aI60784
aI9088
aI22928
aI36768
aI50616
aI64464
aI12768
aI27686
aI41124
aI54964
aI3268
aI17108
aI30948
aI44788
aI58628
aI6940
aI20788
aI34628
aI49546
aI62984
aI11288
aI25128
aI38968
aI52808
aI1112
aI14952
aI28800
aI42648
aI56488
aI5889
aI19336
aI33180
aI47020
aI60860
aI9164
aI23004
aI36844
aI50684
aI64532
aI12840
aI27766
aI41204
aI55044
aI3368
aI17212
aI31052
aI44892
aI58732
aI7036
aI20876
aI34716
aI63072
aI11376
aI25224
aI39072
aI52912
aI1212
aI15052
aI28892
aI42732
aI56572
aI5955
aI19392
aI33232
aI47072
aI60912
aI9224
aI23072
aI36912
aI50752
aI64592
aI12896
aI27815
asg13
(lp37
I459
aI459
aI457
aI455
aI457
aI460
aI458
aI456
aI457
aI457
aI459
aI459
aI456
aI458
aI455
aI454
aI456
aI453
aI458
aI457
aI461
aI458
aI456
aI457
aI455
aI457
aI455
aI455
aI457
aI457
aI455
aI457
aI455
aI458
aI457
aI455
aI460
aI460
aI456
aI457
aI459
aI458
aI462
aI457
aI460
aI455
aI456
aI457
aI457
aI459
aI459
aI455
aI457
aI459
aI457
aI453
aI457
aI456
aI455
aI457
aI457
aI458
aI456
aI458
aI455
aI459
aI455
aI455
aI455
aI457
aI455
aI453
aI455
aI458
aI455
aI458
aI457
aI460
aI456
aI459
aI457
aI459
aI460
aI457
aI456
aI458
aI460
aI456
aI457
aI456
aI455
aI462
aI458
aI453
aI456
aI455
aI455
aI458
aI455
aI459
asg15
(lp38
I515
aI514
aI516
aI514
aI516
aI514
aI515
aI516
aI519
aI516
aI516
aI515
aI516
aI519
aI517
aI515
aI516
aI515
aI520
aI518
aI518
aI515
aI517
aI515
aI519
aI519
aI515
aI519
aI517
aI515
aI515
aI516
aI512
aI514
aI517
aI517
aI516
aI514
aI516
aI513
aI514
aI515
aI516
aI515
aI519
aI518
aI521
aI516
aI513
aI515
aI515
aI516
aI515
aI516
aI515
aI516
aI518
aI515
aI512
aI515
aI515
aI518
aI516
aI515
aI518
aI516
aI518
aI516
aI515
aI515
aI515
aI519
aI516
aI516
aI516
aI513
aI517
aI516
aI514
aI513
aI515
aI517
aI515
aI515
aI516
aI520
aI519
aI516
aI516
aI518
aI519
aI516
aI517
aI518
aI521
aI515
aI516
aI516
aI511
aI516
asg17
(lp39
I774
aI773
aI772
aI775
aI772
aI773
aI775
aI776
aI772
aI774
aI772
aI772
aI774
aI774
aI776
aI774
aI769
aI775
aI773
aI772
aI772
aI776
aI771
aI774
aI773
aI771
aI776
aI771
aI775
aI774
aI773
aI771
aI774
aI774
aI773
aI774
aI775
aI772
aI770
aI774
aI776
aI774
aI772
aI770
aI772
aI774
aI772
aI773
aI770
aI775
aI774
aI774
aI775
aI769
aI774
aI775
aI771
aI771
aI772
aI775
aI776
aI774
aI773
aI772
aI771
aI775
aI771
aI771
aI771
aI773
aI771
aI774
aI771
aI771
aI775
aI773
aI772
aI777
aI772
aI772
aI774
aI774
aI774
aI771
aI777
aI772
aI771
aI780
aI773
aI775
aI776
aI774
aI773
aI771
aI773
aI774
aI775
aI772
aI773
aI772
asg19
(lp40
I27710
aI27710
aI27711
aI27711
aI27711
aI27711
aI27711
aI27712
aI27712
aI27712
aI27712
aI27713
aI27713
aI27713
aI27953
aI27953
aI27953
aI27953
aI27954
aI27954
aI27954
aI27954
aI27954
aI27955
aI27955
aI27955
aI27955
aI27955
aI27956
aI27956
aI27956
aI27956
aI27957
aI27957
aI27957
aI27957
aI27957
aI27958
aI27958
aI27958
aI27958
aI27958
aI27959
aI27959
aI27959
aI27959
aI27959
aI27960
aI27960
aI27960
aI27960
aI27961
aI27961
aI27961
aI27961
aI27961
aI27962
aI27962
aI27962
aI27962
aI27962
aI27963
aI27963
aI27963
aI27963
aI27964
aI27964
aI27964
aI27964
aI27964
aI27965
aI27965
aI27965
aI27965
aI27965
aI27966
aI27966
aI27966
aI27966
aI27967
aI27967
aI27967
aI27967
aI27968
aI27968
aI27968
aI27968
aI27968
aI27969
aI27969
aI27969
aI27969
aI27969
aI27970
aI27970
aI27970
aI27970
aI27971
aI27971
aI27971
astp41
a.